
build-cg/src/simplexsolver:     file format elf32-sh


Disassembly of section .text:

00300000 <_start>:
  300000:	2f 86       	mov.l	r8,@-r15
  300002:	2f 96       	mov.l	r9,@-r15
  300004:	4f 22       	sts.l	pr,@-r15
  300006:	d1 31       	mov.l	3000cc <_start+0xcc>,r1	! 30648c <_hw_detect>
  300008:	7f f8       	add	#-8,r15
  30000a:	2f 42       	mov.l	r4,@r15
  30000c:	41 0b       	jsr	@r1
  30000e:	1f 51       	mov.l	r5,@(4,r15)
  300010:	d1 2f       	mov.l	3000d0 <_start+0xd0>,r1	! 304490 <_regcpy>
  300012:	d6 30       	mov.l	3000d4 <_start+0xd4>,r6	! 81018d0 <_keysc_tid>
  300014:	d5 30       	mov.l	3000d8 <_start+0xd8>,r5	! 2d0 <_sdata>
  300016:	d4 31       	mov.l	3000dc <_start+0xdc>,r4	! 30d774 <_ldata>
  300018:	41 0b       	jsr	@r1
  30001a:	00 09       	nop	
  30001c:	d7 30       	mov.l	3000e0 <_start+0xe0>,r7	! 4d0 <_sbss>
  30001e:	e6 f1       	mov	#-15,r6
  300020:	d2 30       	mov.l	3000e4 <_start+0xe4>,r2	! 8101400 <_gint_exitbuf>
  300022:	e3 00       	mov	#0,r3
  300024:	61 73       	mov	r7,r1
  300026:	71 0f       	add	#15,r1
  300028:	41 09       	shlr2	r1
  30002a:	37 63       	cmp/ge	r6,r7
  30002c:	41 09       	shlr2	r1
  30002e:	71 01       	add	#1,r1
  300030:	89 00       	bt	300034 <_start+0x34>
  300032:	e1 01       	mov	#1,r1
  300034:	41 10       	dt	r1
  300036:	8b 1e       	bf	300076 <_start+0x76>
  300038:	d8 25       	mov.l	3000d0 <_start+0xd0>,r8	! 304490 <_regcpy>
  30003a:	d6 2b       	mov.l	3000e8 <_start+0xe8>,r6	! e5200000 <_ILbuf>
  30003c:	d5 2b       	mov.l	3000ec <_start+0xec>,r5	! a0 <_silram>
  30003e:	d4 2c       	mov.l	3000f0 <_start+0xf0>,r4	! 30da44 <_lilram>
  300040:	48 0b       	jsr	@r8
  300042:	00 09       	nop	
  300044:	d6 2b       	mov.l	3000f4 <_start+0xf4>,r6	! e500e000 <_rxyram>
  300046:	d5 2c       	mov.l	3000f8 <_start+0xf8>,r5	! 0 <_sxyram>
  300048:	d4 2c       	mov.l	3000fc <_start+0xfc>,r4	! 30dae4 <_lxyram>
  30004a:	48 0b       	jsr	@r8
  30004c:	00 09       	nop	
  30004e:	d1 2c       	mov.l	300100 <_start+0x100>,r1	! 306510 <_kinit>
  300050:	41 0b       	jsr	@r1
  300052:	00 09       	nop	
  300054:	d1 2b       	mov.l	300104 <_start+0x104>,r1	! 30a2e4 <_setjmp>
  300056:	d4 2c       	mov.l	300108 <_start+0x108>,r4	! 8101400 <_gint_exitbuf>
  300058:	41 0b       	jsr	@r1
  30005a:	00 09       	nop	
  30005c:	20 08       	tst	r0,r0
  30005e:	89 1f       	bt	3000a0 <_start+0xa0>
  300060:	d8 2a       	mov.l	30010c <_start+0x10c>,r8	! 30013c <_bdtors>
  300062:	d9 2b       	mov.l	300110 <_start+0x110>,r9	! 30013c <_bdtors>
  300064:	38 92       	cmp/hs	r9,r8
  300066:	8b 1f       	bf	3000a8 <_start+0xa8>
  300068:	d1 2a       	mov.l	300114 <_start+0x114>,r1	! 8101434 <_gint_restart>
  30006a:	61 12       	mov.l	@r1,r1
  30006c:	21 18       	tst	r1,r1
  30006e:	89 23       	bt	3000b8 <_start+0xb8>
  300070:	d1 29       	mov.l	300118 <_start+0x118>,r1	! 306810 <_gint_osmenu>
  300072:	af ed       	bra	300050 <_start+0x50>
  300074:	00 09       	nop	
  300076:	22 32       	mov.l	r3,@r2
  300078:	12 31       	mov.l	r3,@(4,r2)
  30007a:	12 32       	mov.l	r3,@(8,r2)
  30007c:	12 33       	mov.l	r3,@(12,r2)
  30007e:	af d9       	bra	300034 <_start+0x34>
  300080:	72 10       	add	#16,r2
  300082:	78 04       	add	#4,r8
  300084:	61 83       	mov	r8,r1
  300086:	71 c0       	add	#-64,r1
  300088:	51 1f       	mov.l	@(60,r1),r1
  30008a:	41 0b       	jsr	@r1
  30008c:	00 09       	nop	
  30008e:	38 92       	cmp/hs	r9,r8
  300090:	8f f7       	bf.s	300082 <_start+0x82>
  300092:	64 f2       	mov.l	@r15,r4
  300094:	d0 21       	mov.l	30011c <_start+0x11c>,r0	! 300458 <_main>
  300096:	40 0b       	jsr	@r0
  300098:	55 f1       	mov.l	@(4,r15),r5
  30009a:	d1 21       	mov.l	300120 <_start+0x120>,r1	! 30a14c <_exit>
  30009c:	41 0b       	jsr	@r1
  30009e:	64 03       	mov	r0,r4
  3000a0:	d8 20       	mov.l	300124 <_start+0x124>,r8	! 300134 <_bctors>
  3000a2:	d9 21       	mov.l	300128 <_start+0x128>,r9	! 30013c <_bdtors>
  3000a4:	af f4       	bra	300090 <_start+0x90>
  3000a6:	38 92       	cmp/hs	r9,r8
  3000a8:	78 04       	add	#4,r8
  3000aa:	61 83       	mov	r8,r1
  3000ac:	71 c0       	add	#-64,r1
  3000ae:	51 1f       	mov.l	@(60,r1),r1
  3000b0:	41 0b       	jsr	@r1
  3000b2:	00 09       	nop	
  3000b4:	af d7       	bra	300066 <_start+0x66>
  3000b6:	38 92       	cmp/hs	r9,r8
  3000b8:	d1 1c       	mov.l	30012c <_start+0x12c>,r1	! 3066e0 <_kquit>
  3000ba:	41 0b       	jsr	@r1
  3000bc:	00 09       	nop	
  3000be:	d1 1c       	mov.l	300130 <_start+0x130>,r1	! 8101438 <_gint_exitcode>
  3000c0:	60 12       	mov.l	@r1,r0
  3000c2:	7f 08       	add	#8,r15
  3000c4:	4f 26       	lds.l	@r15+,pr
  3000c6:	69 f6       	mov.l	@r15+,r9
  3000c8:	00 0b       	rts	
  3000ca:	68 f6       	mov.l	@r15+,r8
  3000cc:	00 30       	.word 0x0030
  3000ce:	64 8c       	extu.b	r8,r4
  3000d0:	00 30       	.word 0x0030
  3000d2:	44 90       	.word 0x4490
  3000d4:	08 10       	.word 0x0810
  3000d6:	18 d0       	mov.l	r13,@(0,r8)
  3000d8:	00 00       	.word 0x0000
  3000da:	02 d0       	.word 0x02d0
  3000dc:	00 30       	.word 0x0030
  3000de:	d7 74       	mov.l	3002b0 <_tableux_construction_stage+0x70>,r7	! 89e4db16
  3000e0:	00 00       	.word 0x0000
  3000e2:	04 d0       	.word 0x04d0
  3000e4:	08 10       	.word 0x0810
  3000e6:	14 00       	mov.l	r0,@(0,r4)
  3000e8:	e5 20       	mov	#32,r5
  3000ea:	00 00       	.word 0x0000
  3000ec:	00 00       	.word 0x0000
  3000ee:	00 a0       	.word 0x00a0
  3000f0:	00 30       	.word 0x0030
  3000f2:	da 44       	mov.l	300204 <map+0x12>,r10	! 94f16
  3000f4:	e5 00       	mov	#0,r5
  3000f6:	e0 00       	mov	#0,r0
  3000f8:	00 00       	.word 0x0000
  3000fa:	00 00       	.word 0x0000
  3000fc:	00 30       	.word 0x0030
  3000fe:	da e4       	mov.l	300490 <_main+0x38>,r10	! 6483d80b
  300100:	00 30       	.word 0x0030
  300102:	65 10       	mov.b	@r1,r5
  300104:	00 30       	.word 0x0030
  300106:	a2 e4       	bra	3006d2 <_new_matrix+0x10e>
  300108:	08 10       	.word 0x0810
  30010a:	14 00       	mov.l	r0,@(0,r4)
  30010c:	00 30       	.word 0x0030
  30010e:	01 3c       	mov.b	@(r0,r3),r1
  300110:	00 30       	.word 0x0030
  300112:	01 3c       	mov.b	@(r0,r3),r1
  300114:	08 10       	.word 0x0810
  300116:	14 34       	mov.l	r3,@(16,r4)
  300118:	00 30       	.word 0x0030
  30011a:	68 10       	mov.b	@r1,r8
  30011c:	00 30       	.word 0x0030
  30011e:	04 58       	.word 0x0458
  300120:	00 30       	.word 0x0030
  300122:	a1 4c       	bra	3003be <_tableux_input_stage+0xa6>
  300124:	00 30       	.word 0x0030
  300126:	01 34       	mov.b	r3,@(r0,r1)
  300128:	00 30       	.word 0x0030
  30012a:	01 3c       	mov.b	@(r0,r3),r1
  30012c:	00 30       	.word 0x0030
  30012e:	66 e0       	mov.b	@r14,r6
  300130:	08 10       	.word 0x0810
  300132:	14 38       	mov.l	r3,@(32,r4)

00300134 <_bctors>:
  300134:	00 30       	.word 0x0030
  300136:	a0 3c       	bra	3001b2 <.gint+0x2>
  300138:	00 30       	.word 0x0030
  30013a:	b9 a0       	bsr	2ff47e <_srom+0x2f1d0a>

0030013c <_bdtors>:
  30013c:	00 00       	.word 0x0000
	...

00300140 <_gint_exch>:
  300140:	4f 22       	sts.l	pr,@-r15
  300142:	4f 13       	stc.l	gbr,@-r15
  300144:	4f 02       	sts.l	mach,@-r15
  300146:	4f 12       	sts.l	macl,@-r15
  300148:	2f 86       	mov.l	r8,@-r15
  30014a:	2f 96       	mov.l	r9,@-r15
  30014c:	d0 18       	mov.l	3001b0 <.gint>,r0	! 8101bc4 <_gint>
  30014e:	60 02       	mov.l	@r0,r0
  300150:	c8 01       	tst	#1,r0
  300152:	d8 18       	mov.l	3001b4 <.expevt_sh4>,r8	! ff000024
  300154:	89 00       	bt	300158 <catch>
  300156:	d8 18       	mov.l	3001b8 <.expevt_sh3>,r8	! ffffffd4

00300158 <catch>:
  300158:	d0 18       	mov.l	3001bc <.catcher>,r0	! 8101724 <_gint_exc_catcher>
  30015a:	60 02       	mov.l	@r0,r0
  30015c:	20 08       	tst	r0,r0
  30015e:	89 0a       	bt	300176 <panic>
  300160:	09 02       	stc	sr,r9
  300162:	d1 18       	mov.l	3001c4 <.SR_set_IMASK>,r1	! f0
  300164:	21 9b       	or	r9,r1
  300166:	d2 18       	mov.l	3001c8 <.SR_clear_BL>,r2	! efffffff
  300168:	21 29       	and	r2,r1
  30016a:	41 0e       	ldc	r1,sr
  30016c:	40 0b       	jsr	@r0
  30016e:	64 82       	mov.l	@r8,r4
  300170:	49 0e       	ldc	r9,sr
  300172:	20 08       	tst	r0,r0
  300174:	89 0d       	bt	300192 <end>

00300176 <panic>:
  300176:	64 82       	mov.l	@r8,r4
  300178:	44 ce       	ldc	r4,r4_bank
  30017a:	69 f6       	mov.l	@r15+,r9
  30017c:	68 f6       	mov.l	@r15+,r8
  30017e:	4f 16       	lds.l	@r15+,macl
  300180:	4f 06       	lds.l	@r15+,mach
  300182:	4f 17       	ldc.l	@r15+,gbr
  300184:	4f 26       	lds.l	@r15+,pr
  300186:	00 32       	stc	ssr,r0
  300188:	40 0e       	ldc	r0,sr
  30018a:	d0 0d       	mov.l	3001c0 <.panic>,r0	! 8101a8c <_gint_exc_panic>
  30018c:	60 02       	mov.l	@r0,r0
  30018e:	40 2b       	jmp	@r0
  300190:	00 09       	nop	

00300192 <end>:
  300192:	69 f6       	mov.l	@r15+,r9
  300194:	68 f6       	mov.l	@r15+,r8
  300196:	4f 16       	lds.l	@r15+,macl
  300198:	4f 06       	lds.l	@r15+,mach
  30019a:	4f 17       	ldc.l	@r15+,gbr
  30019c:	4f 26       	lds.l	@r15+,pr
  30019e:	00 2b       	rte	
  3001a0:	00 09       	nop	
  3001a2:	00 09       	nop	
  3001a4:	00 09       	nop	
  3001a6:	00 09       	nop	
  3001a8:	00 09       	nop	
  3001aa:	00 09       	nop	
  3001ac:	00 09       	nop	
  3001ae:	00 09       	nop	

003001b0 <.gint>:
  3001b0:	08 10       	.word 0x0810
  3001b2:	1b c4       	mov.l	r12,@(16,r11)

003001b4 <.expevt_sh4>:
  3001b4:	ff 00       	.word 0xff00
  3001b6:	00 24       	mov.b	r2,@(r0,r0)

003001b8 <.expevt_sh3>:
  3001b8:	ff ff       	.word 0xffff
  3001ba:	ff d4       	.word 0xffd4

003001bc <.catcher>:
  3001bc:	08 10       	.word 0x0810
  3001be:	17 24       	mov.l	r2,@(16,r7)

003001c0 <.panic>:
  3001c0:	08 10       	.word 0x0810
  3001c2:	1a 8c       	mov.l	r8,@(48,r10)

003001c4 <.SR_set_IMASK>:
  3001c4:	00 00       	.word 0x0000
  3001c6:	00 f0       	.word 0x00f0

003001c8 <.SR_clear_BL>:
  3001c8:	ef ff       	mov	#-1,r15
  3001ca:	ff ff       	.word 0xffff
  3001cc:	00 09       	nop	
  3001ce:	00 09       	nop	

003001d0 <_gint_tlbh>:
  3001d0:	4f 22       	sts.l	pr,@-r15
  3001d2:	4f 13       	stc.l	gbr,@-r15
  3001d4:	4f 02       	sts.l	mach,@-r15
  3001d6:	4f 12       	sts.l	macl,@-r15
  3001d8:	d0 11       	mov.l	300220 <.gint>,r0	! 8101bc4 <_gint>
  3001da:	60 02       	mov.l	@r0,r0
  3001dc:	c8 01       	tst	#1,r0
  3001de:	d0 11       	mov.l	300224 <.tea_sh4>,r0	! ff00000c
  3001e0:	89 00       	bt	3001e4 <test_tea>
  3001e2:	d0 11       	mov.l	300228 <.tea_sh3>,r0	! fffffffc

003001e4 <test_tea>:
  3001e4:	60 02       	mov.l	@r0,r0
  3001e6:	d1 12       	mov.l	300230 <.max_mapped_rom>,r1	! 30d774 <_ldata>
  3001e8:	30 13       	cmp/ge	r1,r0
  3001ea:	89 0c       	bt	300206 <panic>
  3001ec:	d1 0f       	mov.l	30022c <.min_mapped_rom>,r1	! 300000 <_start>
  3001ee:	30 13       	cmp/ge	r1,r0
  3001f0:	8b 09       	bf	300206 <panic>

003001f2 <map>:
  3001f2:	e0 0c       	mov	#12,r0
  3001f4:	d2 0f       	mov.l	300234 <.syscall>,r2	! 80020070
  3001f6:	42 0b       	jsr	@r2
  3001f8:	00 09       	nop	
  3001fa:	4f 16       	lds.l	@r15+,macl
  3001fc:	4f 06       	lds.l	@r15+,mach
  3001fe:	4f 17       	ldc.l	@r15+,gbr
  300200:	4f 26       	lds.l	@r15+,pr
  300202:	00 2b       	rte	
  300204:	00 09       	nop	

00300206 <panic>:
  300206:	4f 16       	lds.l	@r15+,macl
  300208:	4f 06       	lds.l	@r15+,mach
  30020a:	4f 17       	ldc.l	@r15+,gbr
  30020c:	4f 26       	lds.l	@r15+,pr
  30020e:	00 22       	stc	vbr,r0
  300210:	e1 01       	mov	#1,r1
  300212:	41 18       	shll8	r1
  300214:	30 1c       	add	r1,r0
  300216:	40 2b       	jmp	@r0
  300218:	00 09       	nop	
  30021a:	00 09       	nop	
  30021c:	00 09       	nop	
  30021e:	00 09       	nop	

00300220 <.gint>:
  300220:	08 10       	.word 0x0810
  300222:	1b c4       	mov.l	r12,@(16,r11)

00300224 <.tea_sh4>:
  300224:	ff 00       	.word 0xff00
  300226:	00 0c       	mov.b	@(r0,r0),r0

00300228 <.tea_sh3>:
  300228:	ff ff       	.word 0xffff
  30022a:	ff fc       	.word 0xfffc

0030022c <.min_mapped_rom>:
  30022c:	00 30       	.word 0x0030
	...

00300230 <.max_mapped_rom>:
  300230:	00 30       	.word 0x0030
  300232:	d7 74       	mov.l	300404 <_solve_stage+0x34>,r7	! 74ffd111

00300234 <.syscall>:
  300234:	80 02       	mov.b	r0,@(2,r0)
  300236:	00 70       	.word 0x0070
  300238:	00 09       	nop	
  30023a:	00 09       	nop	
  30023c:	00 09       	nop	
  30023e:	00 09       	nop	

00300240 <_tableux_construction_stage>:
  300240:	2f 86       	mov.l	r8,@-r15
  300242:	e7 1e       	mov	#30,r7
  300244:	2f 96       	mov.l	r9,@-r15
  300246:	e6 50       	mov	#80,r6
  300248:	2f a6       	mov.l	r10,@-r15
  30024a:	e5 46       	mov	#70,r5
  30024c:	2f b6       	mov.l	r11,@-r15
  30024e:	e4 50       	mov	#80,r4
  300250:	2f c6       	mov.l	r12,@-r15
  300252:	4f 22       	sts.l	pr,@-r15
  300254:	d8 23       	mov.l	3002e4 <_tableux_construction_stage+0xa4>,r8	! 30136c <_new_viscell>
  300256:	7f f8       	add	#-8,r15
  300258:	d1 23       	mov.l	3002e8 <_tableux_construction_stage+0xa8>,r1	! 30c740 <_gint_drivers_end>
  30025a:	db 24       	mov.l	3002ec <_tableux_construction_stage+0xac>,r11	! 304f04 <_dtext>
  30025c:	1f 11       	mov.l	r1,@(4,r15)
  30025e:	e1 01       	mov	#1,r1
  300260:	48 0b       	jsr	@r8
  300262:	2f 12       	mov.l	r1,@r15
  300264:	d1 22       	mov.l	3002f0 <_tableux_construction_stage+0xb0>,r1	! 30c744
  300266:	e7 1e       	mov	#30,r7
  300268:	94 3a       	mov.w	3002e0 <_tableux_construction_stage+0xa0>,r4	! 104
  30026a:	e6 50       	mov	#80,r6
  30026c:	1f 11       	mov.l	r1,@(4,r15)
  30026e:	e1 00       	mov	#0,r1
  300270:	2f 12       	mov.l	r1,@r15
  300272:	e5 46       	mov	#70,r5
  300274:	da 1f       	mov.l	3002f4 <_tableux_construction_stage+0xb4>,r10	! 301520 <_draw_cell>
  300276:	48 0b       	jsr	@r8
  300278:	69 03       	mov	r0,r9
  30027a:	68 03       	mov	r0,r8
  30027c:	d7 1e       	mov.l	3002f8 <_tableux_construction_stage+0xb8>,r7	! 30c748
  30027e:	e6 00       	mov	#0,r6
  300280:	e5 55       	mov	#85,r5
  300282:	4b 0b       	jsr	@r11
  300284:	e4 0a       	mov	#10,r4
  300286:	d7 1d       	mov.l	3002fc <_tableux_construction_stage+0xbc>,r7	! 30c750
  300288:	e6 00       	mov	#0,r6
  30028a:	94 2a       	mov.w	3002e2 <_tableux_construction_stage+0xa2>,r4	! c8
  30028c:	4b 0b       	jsr	@r11
  30028e:	e5 55       	mov	#85,r5
  300290:	4a 0b       	jsr	@r10
  300292:	64 93       	mov	r9,r4
  300294:	4a 0b       	jsr	@r10
  300296:	64 83       	mov	r8,r4
  300298:	d1 19       	mov.l	300300 <_tableux_construction_stage+0xc0>,r1	! 305af8 <_dupdate>
  30029a:	41 0b       	jsr	@r1
  30029c:	00 09       	nop	
  30029e:	d0 19       	mov.l	300304 <_tableux_construction_stage+0xc4>,r0	! 3045d4 <_getkey>
  3002a0:	40 0b       	jsr	@r0
  3002a2:	00 09       	nop	
  3002a4:	64 03       	mov	r0,r4
  3002a6:	d0 18       	mov.l	300308 <_tableux_construction_stage+0xc8>,r0	! 302854 <_process_key_construction_stage>
  3002a8:	66 83       	mov	r8,r6
  3002aa:	40 0b       	jsr	@r0
  3002ac:	65 93       	mov	r9,r5
  3002ae:	20 08       	tst	r0,r0
  3002b0:	89 e4       	bt	30027c <_tableux_construction_stage+0x3c>
  3002b2:	db 16       	mov.l	30030c <_tableux_construction_stage+0xcc>,r11	! 30a100 <_atoi>
  3002b4:	dc 16       	mov.l	300310 <_tableux_construction_stage+0xd0>,r12	! 301464 <_free_viscell>
  3002b6:	4b 0b       	jsr	@r11
  3002b8:	54 96       	mov.l	@(24,r9),r4
  3002ba:	54 86       	mov.l	@(24,r8),r4
  3002bc:	4b 0b       	jsr	@r11
  3002be:	6a 03       	mov	r0,r10
  3002c0:	64 93       	mov	r9,r4
  3002c2:	4c 0b       	jsr	@r12
  3002c4:	6b 03       	mov	r0,r11
  3002c6:	4c 0b       	jsr	@r12
  3002c8:	64 83       	mov	r8,r4
  3002ca:	d0 12       	mov.l	300314 <_tableux_construction_stage+0xd4>,r0	! 3015bc <_new_tableux>
  3002cc:	65 bc       	extu.b	r11,r5
  3002ce:	64 ac       	extu.b	r10,r4
  3002d0:	7f 08       	add	#8,r15
  3002d2:	4f 26       	lds.l	@r15+,pr
  3002d4:	6c f6       	mov.l	@r15+,r12
  3002d6:	6b f6       	mov.l	@r15+,r11
  3002d8:	6a f6       	mov.l	@r15+,r10
  3002da:	69 f6       	mov.l	@r15+,r9
  3002dc:	40 2b       	jmp	@r0
  3002de:	68 f6       	mov.l	@r15+,r8
  3002e0:	01 04       	mov.b	r0,@(r0,r1)
  3002e2:	00 c8       	setdmy	
  3002e4:	00 30       	.word 0x0030
  3002e6:	13 6c       	mov.l	r6,@(48,r3)
  3002e8:	00 30       	.word 0x0030
  3002ea:	c7 40       	mova	3003ec <_solve_stage+0x1c>,r0
  3002ec:	00 30       	.word 0x0030
  3002ee:	4f 04       	rotl	r15
  3002f0:	00 30       	.word 0x0030
  3002f2:	c7 44       	mova	300404 <_solve_stage+0x34>,r0
  3002f4:	00 30       	.word 0x0030
  3002f6:	15 20       	mov.l	r2,@(0,r5)
  3002f8:	00 30       	.word 0x0030
  3002fa:	c7 48       	mova	30041c <_solve_stage+0x4c>,r0
  3002fc:	00 30       	.word 0x0030
  3002fe:	c7 50       	mova	300440 <_solve_stage+0x70>,r0
  300300:	00 30       	.word 0x0030
  300302:	5a f8       	mov.l	@(32,r15),r10
  300304:	00 30       	.word 0x0030
  300306:	45 d4       	.word 0x45d4
  300308:	00 30       	.word 0x0030
  30030a:	28 54       	mov.b	r5,@-r8
  30030c:	00 30       	.word 0x0030
  30030e:	a1 00       	bra	300512 <L_movmem_start_even+0xc>
  300310:	00 30       	.word 0x0030
  300312:	14 64       	mov.l	r6,@(16,r4)
  300314:	00 30       	.word 0x0030
  300316:	15 bc       	mov.l	r11,@(48,r5)

00300318 <_tableux_input_stage>:
  300318:	2f 86       	mov.l	r8,@-r15
  30031a:	e0 01       	mov	#1,r0
  30031c:	2f 96       	mov.l	r9,@-r15
  30031e:	e8 00       	mov	#0,r8
  300320:	2f a6       	mov.l	r10,@-r15
  300322:	69 43       	mov	r4,r9
  300324:	2f b6       	mov.l	r11,@-r15
  300326:	2f c6       	mov.l	r12,@-r15
  300328:	4f 22       	sts.l	pr,@-r15
  30032a:	7f fc       	add	#-4,r15
  30032c:	db 20       	mov.l	3003b0 <_tableux_input_stage+0x98>,r11	! 301a64 <_display_tableux>
  30032e:	6a f3       	mov	r15,r10
  300330:	9c 3c       	mov.w	3003ac <_tableux_input_stage+0x94>,r12	! 84
  300332:	80 a2       	mov.b	r0,@(2,r10)
  300334:	e0 00       	mov	#0,r0
  300336:	7a f4       	add	#-12,r10
  300338:	80 af       	mov.b	r0,@(15,r10)
  30033a:	4b 0b       	jsr	@r11
  30033c:	64 93       	mov	r9,r4
  30033e:	d1 1d       	mov.l	3003b4 <_tableux_input_stage+0x9c>,r1	! 305af8 <_dupdate>
  300340:	41 0b       	jsr	@r1
  300342:	00 09       	nop	
  300344:	d1 1c       	mov.l	3003b8 <_tableux_input_stage+0xa0>,r1	! 3059d8 <_dclear>
  300346:	d4 1d       	mov.l	3003bc <_tableux_input_stage+0xa4>,r4	! ffff
  300348:	41 0b       	jsr	@r1
  30034a:	00 09       	nop	
  30034c:	d0 1c       	mov.l	3003c0 <_tableux_input_stage+0xa8>,r0	! 3045d4 <_getkey>
  30034e:	40 0b       	jsr	@r0
  300350:	00 09       	nop	
  300352:	61 0c       	extu.b	r0,r1
  300354:	31 c0       	cmp/eq	r12,r1
  300356:	8d 06       	bt.s	300366 <_tableux_input_stage+0x4e>
  300358:	64 03       	mov	r0,r4
  30035a:	28 88       	tst	r8,r8
  30035c:	8d 0c       	bt.s	300378 <_tableux_input_stage+0x60>
  30035e:	60 83       	mov	r8,r0
  300360:	88 01       	cmp/eq	#1,r0
  300362:	8d 1a       	bt.s	30039a <_tableux_input_stage+0x82>
  300364:	67 93       	mov	r9,r7
  300366:	e0 00       	mov	#0,r0
  300368:	7f 04       	add	#4,r15
  30036a:	4f 26       	lds.l	@r15+,pr
  30036c:	6c f6       	mov.l	@r15+,r12
  30036e:	6b f6       	mov.l	@r15+,r11
  300370:	6a f6       	mov.l	@r15+,r10
  300372:	69 f6       	mov.l	@r15+,r9
  300374:	00 0b       	rts	
  300376:	68 f6       	mov.l	@r15+,r8
  300378:	d0 12       	mov.l	3003c4 <_tableux_input_stage+0xac>,r0	! 302b90 <_process_key_rowcol_stage>
  30037a:	67 93       	mov	r9,r7
  30037c:	66 f3       	mov	r15,r6
  30037e:	65 f3       	mov	r15,r5
  300380:	76 03       	add	#3,r6
  300382:	40 0b       	jsr	@r0
  300384:	75 02       	add	#2,r5
  300386:	68 03       	mov	r0,r8
  300388:	84 af       	mov.b	@(15,r10),r0
  30038a:	66 93       	mov	r9,r6
  30038c:	d1 0e       	mov.l	3003c8 <_tableux_input_stage+0xb0>,r1	! 301b10 <_update_cursor>
  30038e:	65 0c       	extu.b	r0,r5
  300390:	84 ae       	mov.b	@(14,r10),r0
  300392:	41 0b       	jsr	@r1
  300394:	64 0c       	extu.b	r0,r4
  300396:	af d0       	bra	30033a <_tableux_input_stage+0x22>
  300398:	00 09       	nop	
  30039a:	d0 0c       	mov.l	3003cc <_tableux_input_stage+0xb4>,r0	! 303264 <_process_key_tableux_stage>
  30039c:	66 f3       	mov	r15,r6
  30039e:	65 f3       	mov	r15,r5
  3003a0:	76 03       	add	#3,r6
  3003a2:	40 0b       	jsr	@r0
  3003a4:	75 02       	add	#2,r5
  3003a6:	70 01       	add	#1,r0
  3003a8:	af ee       	bra	300388 <_tableux_input_stage+0x70>
  3003aa:	68 0c       	extu.b	r0,r8
  3003ac:	00 84       	mov.b	r8,@(r0,r0)
  3003ae:	00 09       	nop	
  3003b0:	00 30       	.word 0x0030
  3003b2:	1a 64       	mov.l	r6,@(16,r10)
  3003b4:	00 30       	.word 0x0030
  3003b6:	5a f8       	mov.l	@(32,r15),r10
  3003b8:	00 30       	.word 0x0030
  3003ba:	59 d8       	mov.l	@(32,r13),r9
  3003bc:	00 00       	.word 0x0000
  3003be:	ff ff       	.word 0xffff
  3003c0:	00 30       	.word 0x0030
  3003c2:	45 d4       	.word 0x45d4
  3003c4:	00 30       	.word 0x0030
  3003c6:	2b 90       	mov.b	r9,@r11
  3003c8:	00 30       	.word 0x0030
  3003ca:	1b 10       	mov.l	r1,@(0,r11)
  3003cc:	00 30       	.word 0x0030
  3003ce:	32 64       	div1	r6,r2

003003d0 <_solve_stage>:
  3003d0:	2f 86       	mov.l	r8,@-r15
  3003d2:	68 43       	mov	r4,r8
  3003d4:	2f 96       	mov.l	r9,@-r15
  3003d6:	2f a6       	mov.l	r10,@-r15
  3003d8:	2f b6       	mov.l	r11,@-r15
  3003da:	d0 18       	mov.l	30043c <_solve_stage+0x6c>,r0	! 301d84 <_extract_grid>
  3003dc:	4f 22       	sts.l	pr,@-r15
  3003de:	40 0b       	jsr	@r0
  3003e0:	7f f0       	add	#-16,r15
  3003e2:	69 03       	mov	r0,r9
  3003e4:	d0 16       	mov.l	300440 <_solve_stage+0x70>,r0	! 301bc2 <_extract_row_names>
  3003e6:	40 0b       	jsr	@r0
  3003e8:	64 83       	mov	r8,r4
  3003ea:	6a 03       	mov	r0,r10
  3003ec:	d0 15       	mov.l	300444 <_solve_stage+0x74>,r0	! 301ca0 <_extract_column_names>
  3003ee:	40 0b       	jsr	@r0
  3003f0:	64 83       	mov	r8,r4
  3003f2:	6b 03       	mov	r0,r11
  3003f4:	84 81       	mov.b	@(1,r8),r0
  3003f6:	64 80       	mov.b	@r8,r4
  3003f8:	66 93       	mov	r9,r6
  3003fa:	65 0c       	extu.b	r0,r5
  3003fc:	d0 12       	mov.l	300448 <_solve_stage+0x78>,r0	! 300740 <_new_matrix_with_data>
  3003fe:	64 4c       	extu.b	r4,r4
  300400:	75 ff       	add	#-1,r5
  300402:	40 0b       	jsr	@r0
  300404:	74 ff       	add	#-1,r4
  300406:	d1 11       	mov.l	30044c <_solve_stage+0x7c>,r1	! 300e44 <_simplex>
  300408:	69 03       	mov	r0,r9
  30040a:	2f b2       	mov.l	r11,@r15
  30040c:	67 a3       	mov	r10,r7
  30040e:	64 02       	mov.l	@r0,r4
  300410:	62 f3       	mov	r15,r2
  300412:	55 01       	mov.l	@(4,r0),r5
  300414:	72 04       	add	#4,r2
  300416:	41 0b       	jsr	@r1
  300418:	56 02       	mov.l	@(8,r0),r6
  30041a:	d3 0d       	mov.l	300450 <_solve_stage+0x80>,r3	! 300520 <___movmemSI12_i4>
  30041c:	64 93       	mov	r9,r4
  30041e:	65 f3       	mov	r15,r5
  300420:	75 04       	add	#4,r5
  300422:	43 0b       	jsr	@r3
  300424:	66 83       	mov	r8,r6
  300426:	d0 0b       	mov.l	300454 <_solve_stage+0x84>,r0	! 301f00 <_matrix_into_tableux>
  300428:	40 0b       	jsr	@r0
  30042a:	65 a3       	mov	r10,r5
  30042c:	e0 00       	mov	#0,r0
  30042e:	7f 10       	add	#16,r15
  300430:	4f 26       	lds.l	@r15+,pr
  300432:	6b f6       	mov.l	@r15+,r11
  300434:	6a f6       	mov.l	@r15+,r10
  300436:	69 f6       	mov.l	@r15+,r9
  300438:	00 0b       	rts	
  30043a:	68 f6       	mov.l	@r15+,r8
  30043c:	00 30       	.word 0x0030
  30043e:	1d 84       	mov.l	r8,@(16,r13)
  300440:	00 30       	.word 0x0030
  300442:	1b c2       	mov.l	r12,@(8,r11)
  300444:	00 30       	.word 0x0030
  300446:	1c a0       	mov.l	r10,@(0,r12)
  300448:	00 30       	.word 0x0030
  30044a:	07 40       	.word 0x0740
  30044c:	00 30       	.word 0x0030
  30044e:	0e 44       	mov.b	r4,@(r0,r14)
  300450:	00 30       	.word 0x0030
  300452:	05 20       	.word 0x0520
  300454:	00 30       	.word 0x0030
  300456:	1f 00       	mov.l	r0,@(0,r15)

00300458 <_main>:
  300458:	2f 86       	mov.l	r8,@-r15
  30045a:	2f 96       	mov.l	r9,@-r15
  30045c:	d9 10       	mov.l	3004a0 <_main+0x48>,r9	! 3059d8 <_dclear>
  30045e:	4f 22       	sts.l	pr,@-r15
  300460:	d4 10       	mov.l	3004a4 <_main+0x4c>,r4	! ffff
  300462:	49 0b       	jsr	@r9
  300464:	00 09       	nop	
  300466:	d0 10       	mov.l	3004a8 <_main+0x50>,r0	! 300240 <_tableux_construction_stage>
  300468:	40 0b       	jsr	@r0
  30046a:	00 09       	nop	
  30046c:	68 03       	mov	r0,r8
  30046e:	64 03       	mov	r0,r4
  300470:	d0 0e       	mov.l	3004ac <_main+0x54>,r0	! 300318 <_tableux_input_stage>
  300472:	40 0b       	jsr	@r0
  300474:	00 09       	nop	
  300476:	d0 0e       	mov.l	3004b0 <_main+0x58>,r0	! 3003d0 <_solve_stage>
  300478:	40 0b       	jsr	@r0
  30047a:	64 83       	mov	r8,r4
  30047c:	d4 09       	mov.l	3004a4 <_main+0x4c>,r4	! ffff
  30047e:	49 0b       	jsr	@r9
  300480:	00 09       	nop	
  300482:	d1 0c       	mov.l	3004b4 <_main+0x5c>,r1	! 301a64 <_display_tableux>
  300484:	41 0b       	jsr	@r1
  300486:	64 83       	mov	r8,r4
  300488:	d1 0b       	mov.l	3004b8 <_main+0x60>,r1	! 305af8 <_dupdate>
  30048a:	41 0b       	jsr	@r1
  30048c:	00 09       	nop	
  30048e:	d1 0b       	mov.l	3004bc <_main+0x64>,r1	! 301930 <_free_tableux>
  300490:	64 83       	mov	r8,r4
  300492:	d8 0b       	mov.l	3004c0 <_main+0x68>,r8	! 3045d4 <_getkey>
  300494:	41 0b       	jsr	@r1
  300496:	00 09       	nop	
  300498:	48 0b       	jsr	@r8
  30049a:	00 09       	nop	
  30049c:	af fc       	bra	300498 <_main+0x40>
  30049e:	00 09       	nop	
  3004a0:	00 30       	.word 0x0030
  3004a2:	59 d8       	mov.l	@(32,r13),r9
  3004a4:	00 00       	.word 0x0000
  3004a6:	ff ff       	.word 0xffff
  3004a8:	00 30       	.word 0x0030
  3004aa:	02 40       	.word 0x0240
  3004ac:	00 30       	.word 0x0030
  3004ae:	03 18       	.word 0x0318
  3004b0:	00 30       	.word 0x0030
  3004b2:	03 d0       	.word 0x03d0
  3004b4:	00 30       	.word 0x0030
  3004b6:	1a 64       	mov.l	r6,@(16,r10)
  3004b8:	00 30       	.word 0x0030
  3004ba:	5a f8       	mov.l	@(32,r15),r10
  3004bc:	00 30       	.word 0x0030
  3004be:	19 30       	mov.l	r3,@(0,r9)
  3004c0:	00 30       	.word 0x0030
  3004c2:	45 d4       	.word 0x45d4
	...

003004e0 <L_movmem_2mod4_end>:
  3004e0:	14 04       	mov.l	r0,@(16,r4)
  3004e2:	00 0b       	rts	
  3004e4:	14 15       	mov.l	r1,@(20,r4)
  3004e6:	00 09       	nop	

003004e8 <___movmem_i4_even>:
  3004e8:	60 56       	mov.l	@r5+,r0
  3004ea:	a0 0c       	bra	300506 <L_movmem_start_even>
  3004ec:	61 56       	mov.l	@r5+,r1

003004ee <___movmem_i4_odd>:
  3004ee:	61 56       	mov.l	@r5+,r1
  3004f0:	74 fc       	add	#-4,r4
  3004f2:	62 56       	mov.l	@r5+,r2
  3004f4:	63 56       	mov.l	@r5+,r3
  3004f6:	14 11       	mov.l	r1,@(4,r4)
  3004f8:	14 22       	mov.l	r2,@(8,r4)

003004fa <L_movmem_loop>:
  3004fa:	14 33       	mov.l	r3,@(12,r4)
  3004fc:	46 10       	dt	r6
  3004fe:	60 56       	mov.l	@r5+,r0
  300500:	8d ee       	bt.s	3004e0 <L_movmem_2mod4_end>
  300502:	61 56       	mov.l	@r5+,r1
  300504:	74 10       	add	#16,r4

00300506 <L_movmem_start_even>:
  300506:	62 56       	mov.l	@r5+,r2
  300508:	63 56       	mov.l	@r5+,r3
  30050a:	24 02       	mov.l	r0,@r4
  30050c:	46 10       	dt	r6
  30050e:	14 11       	mov.l	r1,@(4,r4)
  300510:	8f f3       	bf.s	3004fa <L_movmem_loop>
  300512:	14 22       	mov.l	r2,@(8,r4)
  300514:	00 0b       	rts	
  300516:	14 33       	mov.l	r3,@(12,r4)
  300518:	00 09       	nop	
  30051a:	00 09       	nop	
  30051c:	00 09       	nop	
  30051e:	00 09       	nop	

00300520 <___movmemSI12_i4>:
  300520:	60 52       	mov.l	@r5,r0
  300522:	51 51       	mov.l	@(4,r5),r1
  300524:	52 52       	mov.l	@(8,r5),r2
  300526:	24 02       	mov.l	r0,@r4
  300528:	14 11       	mov.l	r1,@(4,r4)
  30052a:	00 0b       	rts	
  30052c:	14 22       	mov.l	r2,@(8,r4)
  30052e:	00 09       	nop	
  300530:	00 09       	nop	
  300532:	00 09       	nop	
  300534:	00 09       	nop	
  300536:	00 09       	nop	
  300538:	00 09       	nop	
  30053a:	00 09       	nop	
  30053c:	00 09       	nop	
  30053e:	00 09       	nop	

00300540 <_free_matrix>:
  300540:	2f e6       	mov.l	r14,@-r15
  300542:	4f 22       	sts.l	pr,@-r15
  300544:	7f f8       	add	#-8,r15
  300546:	6e f3       	mov	r15,r14
  300548:	61 e3       	mov	r14,r1
  30054a:	71 c8       	add	#-56,r1
  30054c:	11 4e       	mov.l	r4,@(56,r1)
  30054e:	61 e3       	mov	r14,r1
  300550:	71 c8       	add	#-56,r1
  300552:	e2 00       	mov	#0,r2
  300554:	11 2f       	mov.l	r2,@(60,r1)
  300556:	a0 15       	bra	300584 <_free_matrix+0x44>
  300558:	00 09       	nop	
  30055a:	61 e3       	mov	r14,r1
  30055c:	71 c8       	add	#-56,r1
  30055e:	51 1e       	mov.l	@(56,r1),r1
  300560:	52 12       	mov.l	@(8,r1),r2
  300562:	61 e3       	mov	r14,r1
  300564:	71 c8       	add	#-56,r1
  300566:	51 1f       	mov.l	@(60,r1),r1
  300568:	41 08       	shll2	r1
  30056a:	31 2c       	add	r2,r1
  30056c:	61 12       	mov.l	@r1,r1
  30056e:	64 13       	mov	r1,r4
  300570:	d1 13       	mov.l	3005c0 <_free_matrix+0x80>,r1	! 30a524 <_free>
  300572:	41 0b       	jsr	@r1
  300574:	00 09       	nop	
  300576:	61 e3       	mov	r14,r1
  300578:	71 c8       	add	#-56,r1
  30057a:	62 e3       	mov	r14,r2
  30057c:	72 c8       	add	#-56,r2
  30057e:	52 2f       	mov.l	@(60,r2),r2
  300580:	72 01       	add	#1,r2
  300582:	11 2f       	mov.l	r2,@(60,r1)
  300584:	61 e3       	mov	r14,r1
  300586:	71 c8       	add	#-56,r1
  300588:	51 1e       	mov.l	@(56,r1),r1
  30058a:	61 12       	mov.l	@r1,r1
  30058c:	62 e3       	mov	r14,r2
  30058e:	72 c8       	add	#-56,r2
  300590:	52 2f       	mov.l	@(60,r2),r2
  300592:	32 13       	cmp/ge	r1,r2
  300594:	8b e1       	bf	30055a <_free_matrix+0x1a>
  300596:	61 e3       	mov	r14,r1
  300598:	71 c8       	add	#-56,r1
  30059a:	51 1e       	mov.l	@(56,r1),r1
  30059c:	51 12       	mov.l	@(8,r1),r1
  30059e:	64 13       	mov	r1,r4
  3005a0:	d1 07       	mov.l	3005c0 <_free_matrix+0x80>,r1	! 30a524 <_free>
  3005a2:	41 0b       	jsr	@r1
  3005a4:	00 09       	nop	
  3005a6:	61 e3       	mov	r14,r1
  3005a8:	71 c8       	add	#-56,r1
  3005aa:	54 1e       	mov.l	@(56,r1),r4
  3005ac:	d1 04       	mov.l	3005c0 <_free_matrix+0x80>,r1	! 30a524 <_free>
  3005ae:	41 0b       	jsr	@r1
  3005b0:	00 09       	nop	
  3005b2:	00 09       	nop	
  3005b4:	7e 08       	add	#8,r14
  3005b6:	6f e3       	mov	r14,r15
  3005b8:	4f 26       	lds.l	@r15+,pr
  3005ba:	6e f6       	mov.l	@r15+,r14
  3005bc:	00 0b       	rts	
  3005be:	00 09       	nop	
  3005c0:	00 30       	.word 0x0030
  3005c2:	a5 24       	bra	30100e <_simplex+0x1ca>

003005c4 <_new_matrix>:
  3005c4:	2f 86       	mov.l	r8,@-r15
  3005c6:	2f e6       	mov.l	r14,@-r15
  3005c8:	4f 22       	sts.l	pr,@-r15
  3005ca:	7f ec       	add	#-20,r15
  3005cc:	6e f3       	mov	r15,r14
  3005ce:	61 e3       	mov	r14,r1
  3005d0:	71 d4       	add	#-44,r1
  3005d2:	11 4c       	mov.l	r4,@(48,r1)
  3005d4:	61 e3       	mov	r14,r1
  3005d6:	71 d4       	add	#-44,r1
  3005d8:	11 5b       	mov.l	r5,@(44,r1)
  3005da:	68 e3       	mov	r14,r8
  3005dc:	78 d4       	add	#-44,r8
  3005de:	e4 0c       	mov	#12,r4
  3005e0:	d1 55       	mov.l	300738 <_new_matrix+0x174>,r1	! 30a530 <_malloc>
  3005e2:	41 0b       	jsr	@r1
  3005e4:	00 09       	nop	
  3005e6:	61 03       	mov	r0,r1
  3005e8:	18 1d       	mov.l	r1,@(52,r8)
  3005ea:	61 e3       	mov	r14,r1
  3005ec:	71 d4       	add	#-44,r1
  3005ee:	51 1d       	mov.l	@(52,r1),r1
  3005f0:	21 18       	tst	r1,r1
  3005f2:	8b 02       	bf	3005fa <_new_matrix+0x36>
  3005f4:	e1 00       	mov	#0,r1
  3005f6:	a0 97       	bra	300728 <_new_matrix+0x164>
  3005f8:	00 09       	nop	
  3005fa:	61 e3       	mov	r14,r1
  3005fc:	71 d4       	add	#-44,r1
  3005fe:	51 1d       	mov.l	@(52,r1),r1
  300600:	62 e3       	mov	r14,r2
  300602:	72 d4       	add	#-44,r2
  300604:	52 2c       	mov.l	@(48,r2),r2
  300606:	21 22       	mov.l	r2,@r1
  300608:	61 e3       	mov	r14,r1
  30060a:	71 d4       	add	#-44,r1
  30060c:	51 1d       	mov.l	@(52,r1),r1
  30060e:	62 e3       	mov	r14,r2
  300610:	72 d4       	add	#-44,r2
  300612:	52 2b       	mov.l	@(44,r2),r2
  300614:	11 21       	mov.l	r2,@(4,r1)
  300616:	61 e3       	mov	r14,r1
  300618:	71 d4       	add	#-44,r1
  30061a:	51 1c       	mov.l	@(48,r1),r1
  30061c:	41 08       	shll2	r1
  30061e:	64 13       	mov	r1,r4
  300620:	d1 45       	mov.l	300738 <_new_matrix+0x174>,r1	! 30a530 <_malloc>
  300622:	41 0b       	jsr	@r1
  300624:	00 09       	nop	
  300626:	61 03       	mov	r0,r1
  300628:	62 e3       	mov	r14,r2
  30062a:	72 d4       	add	#-44,r2
  30062c:	52 2d       	mov.l	@(52,r2),r2
  30062e:	12 12       	mov.l	r1,@(8,r2)
  300630:	61 e3       	mov	r14,r1
  300632:	71 d4       	add	#-44,r1
  300634:	51 1d       	mov.l	@(52,r1),r1
  300636:	51 12       	mov.l	@(8,r1),r1
  300638:	21 18       	tst	r1,r1
  30063a:	8b 08       	bf	30064e <_new_matrix+0x8a>
  30063c:	61 e3       	mov	r14,r1
  30063e:	71 d4       	add	#-44,r1
  300640:	54 1d       	mov.l	@(52,r1),r4
  300642:	d1 3e       	mov.l	30073c <_new_matrix+0x178>,r1	! 30a524 <_free>
  300644:	41 0b       	jsr	@r1
  300646:	00 09       	nop	
  300648:	e1 00       	mov	#0,r1
  30064a:	a0 6d       	bra	300728 <_new_matrix+0x164>
  30064c:	00 09       	nop	
  30064e:	61 e3       	mov	r14,r1
  300650:	71 d4       	add	#-44,r1
  300652:	e2 00       	mov	#0,r2
  300654:	11 2f       	mov.l	r2,@(60,r1)
  300656:	a0 5c       	bra	300712 <_new_matrix+0x14e>
  300658:	00 09       	nop	
  30065a:	61 e3       	mov	r14,r1
  30065c:	71 d4       	add	#-44,r1
  30065e:	51 1b       	mov.l	@(44,r1),r1
  300660:	41 08       	shll2	r1
  300662:	41 08       	shll2	r1
  300664:	62 e3       	mov	r14,r2
  300666:	72 d4       	add	#-44,r2
  300668:	52 2d       	mov.l	@(52,r2),r2
  30066a:	53 22       	mov.l	@(8,r2),r3
  30066c:	62 e3       	mov	r14,r2
  30066e:	72 d4       	add	#-44,r2
  300670:	52 2f       	mov.l	@(60,r2),r2
  300672:	42 08       	shll2	r2
  300674:	68 33       	mov	r3,r8
  300676:	38 2c       	add	r2,r8
  300678:	64 13       	mov	r1,r4
  30067a:	d1 2f       	mov.l	300738 <_new_matrix+0x174>,r1	! 30a530 <_malloc>
  30067c:	41 0b       	jsr	@r1
  30067e:	00 09       	nop	
  300680:	61 03       	mov	r0,r1
  300682:	28 12       	mov.l	r1,@r8
  300684:	61 e3       	mov	r14,r1
  300686:	71 d4       	add	#-44,r1
  300688:	51 1d       	mov.l	@(52,r1),r1
  30068a:	52 12       	mov.l	@(8,r1),r2
  30068c:	61 e3       	mov	r14,r1
  30068e:	71 d4       	add	#-44,r1
  300690:	51 1f       	mov.l	@(60,r1),r1
  300692:	41 08       	shll2	r1
  300694:	31 2c       	add	r2,r1
  300696:	61 12       	mov.l	@r1,r1
  300698:	21 18       	tst	r1,r1
  30069a:	8b 33       	bf	300704 <_new_matrix+0x140>
  30069c:	61 e3       	mov	r14,r1
  30069e:	71 d4       	add	#-44,r1
  3006a0:	e2 00       	mov	#0,r2
  3006a2:	11 2e       	mov.l	r2,@(56,r1)
  3006a4:	a0 15       	bra	3006d2 <_new_matrix+0x10e>
  3006a6:	00 09       	nop	
  3006a8:	61 e3       	mov	r14,r1
  3006aa:	71 d4       	add	#-44,r1
  3006ac:	51 1d       	mov.l	@(52,r1),r1
  3006ae:	52 12       	mov.l	@(8,r1),r2
  3006b0:	61 e3       	mov	r14,r1
  3006b2:	71 d4       	add	#-44,r1
  3006b4:	51 1e       	mov.l	@(56,r1),r1
  3006b6:	41 08       	shll2	r1
  3006b8:	31 2c       	add	r2,r1
  3006ba:	61 12       	mov.l	@r1,r1
  3006bc:	64 13       	mov	r1,r4
  3006be:	d1 1f       	mov.l	30073c <_new_matrix+0x178>,r1	! 30a524 <_free>
  3006c0:	41 0b       	jsr	@r1
  3006c2:	00 09       	nop	
  3006c4:	61 e3       	mov	r14,r1
  3006c6:	71 d4       	add	#-44,r1
  3006c8:	62 e3       	mov	r14,r2
  3006ca:	72 d4       	add	#-44,r2
  3006cc:	52 2e       	mov.l	@(56,r2),r2
  3006ce:	72 01       	add	#1,r2
  3006d0:	11 2e       	mov.l	r2,@(56,r1)
  3006d2:	62 e3       	mov	r14,r2
  3006d4:	72 d4       	add	#-44,r2
  3006d6:	61 e3       	mov	r14,r1
  3006d8:	71 d4       	add	#-44,r1
  3006da:	52 2e       	mov.l	@(56,r2),r2
  3006dc:	51 1f       	mov.l	@(60,r1),r1
  3006de:	32 13       	cmp/ge	r1,r2
  3006e0:	8b e2       	bf	3006a8 <_new_matrix+0xe4>
  3006e2:	61 e3       	mov	r14,r1
  3006e4:	71 d4       	add	#-44,r1
  3006e6:	51 1d       	mov.l	@(52,r1),r1
  3006e8:	51 12       	mov.l	@(8,r1),r1
  3006ea:	64 13       	mov	r1,r4
  3006ec:	d1 13       	mov.l	30073c <_new_matrix+0x178>,r1	! 30a524 <_free>
  3006ee:	41 0b       	jsr	@r1
  3006f0:	00 09       	nop	
  3006f2:	61 e3       	mov	r14,r1
  3006f4:	71 d4       	add	#-44,r1
  3006f6:	54 1d       	mov.l	@(52,r1),r4
  3006f8:	d1 10       	mov.l	30073c <_new_matrix+0x178>,r1	! 30a524 <_free>
  3006fa:	41 0b       	jsr	@r1
  3006fc:	00 09       	nop	
  3006fe:	e1 00       	mov	#0,r1
  300700:	a0 12       	bra	300728 <_new_matrix+0x164>
  300702:	00 09       	nop	
  300704:	61 e3       	mov	r14,r1
  300706:	71 d4       	add	#-44,r1
  300708:	62 e3       	mov	r14,r2
  30070a:	72 d4       	add	#-44,r2
  30070c:	52 2f       	mov.l	@(60,r2),r2
  30070e:	72 01       	add	#1,r2
  300710:	11 2f       	mov.l	r2,@(60,r1)
  300712:	62 e3       	mov	r14,r2
  300714:	72 d4       	add	#-44,r2
  300716:	61 e3       	mov	r14,r1
  300718:	71 d4       	add	#-44,r1
  30071a:	52 2f       	mov.l	@(60,r2),r2
  30071c:	51 1c       	mov.l	@(48,r1),r1
  30071e:	32 13       	cmp/ge	r1,r2
  300720:	8b 9b       	bf	30065a <_new_matrix+0x96>
  300722:	61 e3       	mov	r14,r1
  300724:	71 d4       	add	#-44,r1
  300726:	51 1d       	mov.l	@(52,r1),r1
  300728:	60 13       	mov	r1,r0
  30072a:	7e 14       	add	#20,r14
  30072c:	6f e3       	mov	r14,r15
  30072e:	4f 26       	lds.l	@r15+,pr
  300730:	6e f6       	mov.l	@r15+,r14
  300732:	68 f6       	mov.l	@r15+,r8
  300734:	00 0b       	rts	
  300736:	00 09       	nop	
  300738:	00 30       	.word 0x0030
  30073a:	a5 30       	bra	30119e <_simplex+0x35a>
  30073c:	00 30       	.word 0x0030
  30073e:	a5 24       	bra	30118a <_simplex+0x346>

00300740 <_new_matrix_with_data>:
  300740:	2f 86       	mov.l	r8,@-r15
  300742:	2f e6       	mov.l	r14,@-r15
  300744:	4f 22       	sts.l	pr,@-r15
  300746:	7f ec       	add	#-20,r15
  300748:	6e f3       	mov	r15,r14
  30074a:	61 e3       	mov	r14,r1
  30074c:	71 d4       	add	#-44,r1
  30074e:	11 4d       	mov.l	r4,@(52,r1)
  300750:	61 e3       	mov	r14,r1
  300752:	71 d4       	add	#-44,r1
  300754:	11 5c       	mov.l	r5,@(48,r1)
  300756:	61 e3       	mov	r14,r1
  300758:	71 d4       	add	#-44,r1
  30075a:	11 6b       	mov.l	r6,@(44,r1)
  30075c:	68 e3       	mov	r14,r8
  30075e:	78 d4       	add	#-44,r8
  300760:	62 e3       	mov	r14,r2
  300762:	72 d4       	add	#-44,r2
  300764:	61 e3       	mov	r14,r1
  300766:	71 d4       	add	#-44,r1
  300768:	55 2c       	mov.l	@(48,r2),r5
  30076a:	54 1d       	mov.l	@(52,r1),r4
  30076c:	d1 25       	mov.l	300804 <_new_matrix_with_data+0xc4>,r1	! 3005c4 <_new_matrix>
  30076e:	41 0b       	jsr	@r1
  300770:	00 09       	nop	
  300772:	61 03       	mov	r0,r1
  300774:	18 1e       	mov.l	r1,@(56,r8)
  300776:	61 e3       	mov	r14,r1
  300778:	71 d4       	add	#-44,r1
  30077a:	51 1e       	mov.l	@(56,r1),r1
  30077c:	21 18       	tst	r1,r1
  30077e:	8b 02       	bf	300786 <_new_matrix_with_data+0x46>
  300780:	e1 00       	mov	#0,r1
  300782:	a0 36       	bra	3007f2 <_new_matrix_with_data+0xb2>
  300784:	00 09       	nop	
  300786:	61 e3       	mov	r14,r1
  300788:	71 d4       	add	#-44,r1
  30078a:	e2 00       	mov	#0,r2
  30078c:	11 2f       	mov.l	r2,@(60,r1)
  30078e:	a0 25       	bra	3007dc <_new_matrix_with_data+0x9c>
  300790:	00 09       	nop	
  300792:	61 e3       	mov	r14,r1
  300794:	71 d4       	add	#-44,r1
  300796:	51 1e       	mov.l	@(56,r1),r1
  300798:	52 12       	mov.l	@(8,r1),r2
  30079a:	61 e3       	mov	r14,r1
  30079c:	71 d4       	add	#-44,r1
  30079e:	51 1f       	mov.l	@(60,r1),r1
  3007a0:	41 08       	shll2	r1
  3007a2:	31 2c       	add	r2,r1
  3007a4:	63 12       	mov.l	@r1,r3
  3007a6:	61 e3       	mov	r14,r1
  3007a8:	71 d4       	add	#-44,r1
  3007aa:	51 1f       	mov.l	@(60,r1),r1
  3007ac:	41 08       	shll2	r1
  3007ae:	62 e3       	mov	r14,r2
  3007b0:	72 d4       	add	#-44,r2
  3007b2:	52 2b       	mov.l	@(44,r2),r2
  3007b4:	31 2c       	add	r2,r1
  3007b6:	62 12       	mov.l	@r1,r2
  3007b8:	61 e3       	mov	r14,r1
  3007ba:	71 d4       	add	#-44,r1
  3007bc:	51 1c       	mov.l	@(48,r1),r1
  3007be:	41 08       	shll2	r1
  3007c0:	41 08       	shll2	r1
  3007c2:	66 13       	mov	r1,r6
  3007c4:	65 23       	mov	r2,r5
  3007c6:	64 33       	mov	r3,r4
  3007c8:	d1 0f       	mov.l	300808 <_new_matrix_with_data+0xc8>,r1	! 30a3e0 <_memcpy>
  3007ca:	41 0b       	jsr	@r1
  3007cc:	00 09       	nop	
  3007ce:	61 e3       	mov	r14,r1
  3007d0:	71 d4       	add	#-44,r1
  3007d2:	62 e3       	mov	r14,r2
  3007d4:	72 d4       	add	#-44,r2
  3007d6:	52 2f       	mov.l	@(60,r2),r2
  3007d8:	72 01       	add	#1,r2
  3007da:	11 2f       	mov.l	r2,@(60,r1)
  3007dc:	62 e3       	mov	r14,r2
  3007de:	72 d4       	add	#-44,r2
  3007e0:	61 e3       	mov	r14,r1
  3007e2:	71 d4       	add	#-44,r1
  3007e4:	52 2f       	mov.l	@(60,r2),r2
  3007e6:	51 1d       	mov.l	@(52,r1),r1
  3007e8:	32 13       	cmp/ge	r1,r2
  3007ea:	8b d2       	bf	300792 <_new_matrix_with_data+0x52>
  3007ec:	61 e3       	mov	r14,r1
  3007ee:	71 d4       	add	#-44,r1
  3007f0:	51 1e       	mov.l	@(56,r1),r1
  3007f2:	60 13       	mov	r1,r0
  3007f4:	7e 14       	add	#20,r14
  3007f6:	6f e3       	mov	r14,r15
  3007f8:	4f 26       	lds.l	@r15+,pr
  3007fa:	6e f6       	mov.l	@r15+,r14
  3007fc:	68 f6       	mov.l	@r15+,r8
  3007fe:	00 0b       	rts	
  300800:	00 09       	nop	
  300802:	00 09       	nop	
  300804:	00 30       	.word 0x0030
  300806:	05 c4       	mov.b	r12,@(r0,r5)
  300808:	00 30       	.word 0x0030
  30080a:	a3 e0       	bra	300fce <_simplex+0x18a>

0030080c <_get>:
  30080c:	2f e6       	mov.l	r14,@-r15
  30080e:	7f f4       	add	#-12,r15
  300810:	6e f3       	mov	r15,r14
  300812:	61 e3       	mov	r14,r1
  300814:	71 cc       	add	#-52,r1
  300816:	11 4f       	mov.l	r4,@(60,r1)
  300818:	61 e3       	mov	r14,r1
  30081a:	71 cc       	add	#-52,r1
  30081c:	11 5e       	mov.l	r5,@(56,r1)
  30081e:	61 e3       	mov	r14,r1
  300820:	71 cc       	add	#-52,r1
  300822:	11 6d       	mov.l	r6,@(52,r1)
  300824:	61 e3       	mov	r14,r1
  300826:	71 cc       	add	#-52,r1
  300828:	51 1f       	mov.l	@(60,r1),r1
  30082a:	53 12       	mov.l	@(8,r1),r3
  30082c:	61 e3       	mov	r14,r1
  30082e:	71 cc       	add	#-52,r1
  300830:	51 1e       	mov.l	@(56,r1),r1
  300832:	41 08       	shll2	r1
  300834:	31 3c       	add	r3,r1
  300836:	63 12       	mov.l	@r1,r3
  300838:	61 e3       	mov	r14,r1
  30083a:	71 cc       	add	#-52,r1
  30083c:	51 1d       	mov.l	@(52,r1),r1
  30083e:	41 08       	shll2	r1
  300840:	41 08       	shll2	r1
  300842:	31 3c       	add	r3,r1
  300844:	63 12       	mov.l	@r1,r3
  300846:	22 32       	mov.l	r3,@r2
  300848:	71 04       	add	#4,r1
  30084a:	63 12       	mov.l	@r1,r3
  30084c:	12 31       	mov.l	r3,@(4,r2)
  30084e:	71 04       	add	#4,r1
  300850:	63 12       	mov.l	@r1,r3
  300852:	12 32       	mov.l	r3,@(8,r2)
  300854:	71 04       	add	#4,r1
  300856:	63 12       	mov.l	@r1,r3
  300858:	12 33       	mov.l	r3,@(12,r2)
  30085a:	71 04       	add	#4,r1
  30085c:	60 23       	mov	r2,r0
  30085e:	7e 0c       	add	#12,r14
  300860:	6f e3       	mov	r14,r15
  300862:	6e f6       	mov.l	@r15+,r14
  300864:	00 0b       	rts	
  300866:	00 09       	nop	

00300868 <_set>:
  300868:	7f fc       	add	#-4,r15
  30086a:	2f e6       	mov.l	r14,@-r15
  30086c:	7f f4       	add	#-12,r15
  30086e:	6e f3       	mov	r15,r14
  300870:	61 e3       	mov	r14,r1
  300872:	71 cc       	add	#-52,r1
  300874:	11 4f       	mov.l	r4,@(60,r1)
  300876:	61 e3       	mov	r14,r1
  300878:	71 cc       	add	#-52,r1
  30087a:	11 5e       	mov.l	r5,@(56,r1)
  30087c:	61 e3       	mov	r14,r1
  30087e:	71 cc       	add	#-52,r1
  300880:	11 6d       	mov.l	r6,@(52,r1)
  300882:	1e 74       	mov.l	r7,@(16,r14)
  300884:	61 e3       	mov	r14,r1
  300886:	71 cc       	add	#-52,r1
  300888:	51 1f       	mov.l	@(60,r1),r1
  30088a:	61 12       	mov.l	@r1,r1
  30088c:	62 e3       	mov	r14,r2
  30088e:	72 cc       	add	#-52,r2
  300890:	52 2e       	mov.l	@(56,r2),r2
  300892:	32 13       	cmp/ge	r1,r2
  300894:	8b 02       	bf	30089c <_set+0x34>
  300896:	e1 00       	mov	#0,r1
  300898:	a0 2b       	bra	3008f2 <_set+0x8a>
  30089a:	00 09       	nop	
  30089c:	61 e3       	mov	r14,r1
  30089e:	71 cc       	add	#-52,r1
  3008a0:	51 1f       	mov.l	@(60,r1),r1
  3008a2:	51 11       	mov.l	@(4,r1),r1
  3008a4:	62 e3       	mov	r14,r2
  3008a6:	72 cc       	add	#-52,r2
  3008a8:	52 2d       	mov.l	@(52,r2),r2
  3008aa:	32 13       	cmp/ge	r1,r2
  3008ac:	8b 02       	bf	3008b4 <_set+0x4c>
  3008ae:	e1 00       	mov	#0,r1
  3008b0:	a0 1f       	bra	3008f2 <_set+0x8a>
  3008b2:	00 09       	nop	
  3008b4:	61 e3       	mov	r14,r1
  3008b6:	71 cc       	add	#-52,r1
  3008b8:	51 1f       	mov.l	@(60,r1),r1
  3008ba:	52 12       	mov.l	@(8,r1),r2
  3008bc:	61 e3       	mov	r14,r1
  3008be:	71 cc       	add	#-52,r1
  3008c0:	51 1e       	mov.l	@(56,r1),r1
  3008c2:	41 08       	shll2	r1
  3008c4:	31 2c       	add	r2,r1
  3008c6:	62 12       	mov.l	@r1,r2
  3008c8:	61 e3       	mov	r14,r1
  3008ca:	71 cc       	add	#-52,r1
  3008cc:	51 1d       	mov.l	@(52,r1),r1
  3008ce:	41 08       	shll2	r1
  3008d0:	41 08       	shll2	r1
  3008d2:	32 1c       	add	r1,r2
  3008d4:	61 e3       	mov	r14,r1
  3008d6:	71 10       	add	#16,r1
  3008d8:	63 12       	mov.l	@r1,r3
  3008da:	22 32       	mov.l	r3,@r2
  3008dc:	71 04       	add	#4,r1
  3008de:	63 12       	mov.l	@r1,r3
  3008e0:	12 31       	mov.l	r3,@(4,r2)
  3008e2:	71 04       	add	#4,r1
  3008e4:	63 12       	mov.l	@r1,r3
  3008e6:	12 32       	mov.l	r3,@(8,r2)
  3008e8:	71 04       	add	#4,r1
  3008ea:	63 12       	mov.l	@r1,r3
  3008ec:	12 33       	mov.l	r3,@(12,r2)
  3008ee:	71 04       	add	#4,r1
  3008f0:	e1 01       	mov	#1,r1
  3008f2:	60 13       	mov	r1,r0
  3008f4:	7e 0c       	add	#12,r14
  3008f6:	6f e3       	mov	r14,r15
  3008f8:	6e f6       	mov.l	@r15+,r14
  3008fa:	7f 04       	add	#4,r15
  3008fc:	00 0b       	rts	
  3008fe:	00 09       	nop	

00300900 <_print_mat>:
  300900:	2f 86       	mov.l	r8,@-r15
  300902:	2f e6       	mov.l	r14,@-r15
  300904:	4f 22       	sts.l	pr,@-r15
  300906:	7f dc       	add	#-36,r15
  300908:	6e f3       	mov	r15,r14
  30090a:	61 e3       	mov	r14,r1
  30090c:	71 e4       	add	#-28,r1
  30090e:	11 48       	mov.l	r4,@(32,r1)
  300910:	68 e3       	mov	r14,r8
  300912:	78 e4       	add	#-28,r8
  300914:	e4 1e       	mov	#30,r4
  300916:	d1 33       	mov.l	3009e4 <_print_mat+0xe4>,r1	! 30a530 <_malloc>
  300918:	41 0b       	jsr	@r1
  30091a:	00 09       	nop	
  30091c:	61 03       	mov	r0,r1
  30091e:	18 1d       	mov.l	r1,@(52,r8)
  300920:	61 e3       	mov	r14,r1
  300922:	71 e4       	add	#-28,r1
  300924:	e2 00       	mov	#0,r2
  300926:	11 2f       	mov.l	r2,@(60,r1)
  300928:	a0 45       	bra	3009b6 <_print_mat+0xb6>
  30092a:	00 09       	nop	
  30092c:	61 e3       	mov	r14,r1
  30092e:	71 e4       	add	#-28,r1
  300930:	e2 00       	mov	#0,r2
  300932:	11 2e       	mov.l	r2,@(56,r1)
  300934:	a0 2a       	bra	30098c <_print_mat+0x8c>
  300936:	00 09       	nop	
  300938:	62 e3       	mov	r14,r2
  30093a:	72 08       	add	#8,r2
  30093c:	67 e3       	mov	r14,r7
  30093e:	77 e4       	add	#-28,r7
  300940:	63 e3       	mov	r14,r3
  300942:	73 e4       	add	#-28,r3
  300944:	61 e3       	mov	r14,r1
  300946:	71 e4       	add	#-28,r1
  300948:	56 7e       	mov.l	@(56,r7),r6
  30094a:	55 3f       	mov.l	@(60,r3),r5
  30094c:	54 18       	mov.l	@(32,r1),r4
  30094e:	d1 26       	mov.l	3009e8 <_print_mat+0xe8>,r1	! 30080c <_get>
  300950:	41 0b       	jsr	@r1
  300952:	00 09       	nop	
  300954:	61 e3       	mov	r14,r1
  300956:	71 08       	add	#8,r1
  300958:	62 e3       	mov	r14,r2
  30095a:	72 e4       	add	#-28,r2
  30095c:	52 2d       	mov.l	@(52,r2),r2
  30095e:	2f 22       	mov.l	r2,@r15
  300960:	64 12       	mov.l	@r1,r4
  300962:	55 11       	mov.l	@(4,r1),r5
  300964:	56 12       	mov.l	@(8,r1),r6
  300966:	57 13       	mov.l	@(12,r1),r7
  300968:	d1 20       	mov.l	3009ec <_print_mat+0xec>,r1	! 3089d8 <_BigM_str>
  30096a:	41 0b       	jsr	@r1
  30096c:	00 09       	nop	
  30096e:	61 e3       	mov	r14,r1
  300970:	71 e4       	add	#-28,r1
  300972:	d2 1f       	mov.l	3009f0 <_print_mat+0xf0>,r2	! 30c758
  300974:	55 1d       	mov.l	@(52,r1),r5
  300976:	64 23       	mov	r2,r4
  300978:	d1 1e       	mov.l	3009f4 <_print_mat+0xf4>,r1	! 309bec <_printf>
  30097a:	41 0b       	jsr	@r1
  30097c:	00 09       	nop	
  30097e:	61 e3       	mov	r14,r1
  300980:	71 e4       	add	#-28,r1
  300982:	62 e3       	mov	r14,r2
  300984:	72 e4       	add	#-28,r2
  300986:	52 2e       	mov.l	@(56,r2),r2
  300988:	72 01       	add	#1,r2
  30098a:	11 2e       	mov.l	r2,@(56,r1)
  30098c:	61 e3       	mov	r14,r1
  30098e:	71 e4       	add	#-28,r1
  300990:	51 18       	mov.l	@(32,r1),r1
  300992:	51 11       	mov.l	@(4,r1),r1
  300994:	62 e3       	mov	r14,r2
  300996:	72 e4       	add	#-28,r2
  300998:	52 2e       	mov.l	@(56,r2),r2
  30099a:	32 13       	cmp/ge	r1,r2
  30099c:	8b cc       	bf	300938 <_print_mat+0x38>
  30099e:	d1 16       	mov.l	3009f8 <_print_mat+0xf8>,r1	! 30c75c
  3009a0:	64 13       	mov	r1,r4
  3009a2:	d1 14       	mov.l	3009f4 <_print_mat+0xf4>,r1	! 309bec <_printf>
  3009a4:	41 0b       	jsr	@r1
  3009a6:	00 09       	nop	
  3009a8:	61 e3       	mov	r14,r1
  3009aa:	71 e4       	add	#-28,r1
  3009ac:	62 e3       	mov	r14,r2
  3009ae:	72 e4       	add	#-28,r2
  3009b0:	52 2f       	mov.l	@(60,r2),r2
  3009b2:	72 01       	add	#1,r2
  3009b4:	11 2f       	mov.l	r2,@(60,r1)
  3009b6:	61 e3       	mov	r14,r1
  3009b8:	71 e4       	add	#-28,r1
  3009ba:	51 18       	mov.l	@(32,r1),r1
  3009bc:	61 12       	mov.l	@r1,r1
  3009be:	62 e3       	mov	r14,r2
  3009c0:	72 e4       	add	#-28,r2
  3009c2:	52 2f       	mov.l	@(60,r2),r2
  3009c4:	32 13       	cmp/ge	r1,r2
  3009c6:	8b b1       	bf	30092c <_print_mat+0x2c>
  3009c8:	61 e3       	mov	r14,r1
  3009ca:	71 e4       	add	#-28,r1
  3009cc:	54 1d       	mov.l	@(52,r1),r4
  3009ce:	d1 0b       	mov.l	3009fc <_print_mat+0xfc>,r1	! 30a524 <_free>
  3009d0:	41 0b       	jsr	@r1
  3009d2:	00 09       	nop	
  3009d4:	00 09       	nop	
  3009d6:	7e 24       	add	#36,r14
  3009d8:	6f e3       	mov	r14,r15
  3009da:	4f 26       	lds.l	@r15+,pr
  3009dc:	6e f6       	mov.l	@r15+,r14
  3009de:	68 f6       	mov.l	@r15+,r8
  3009e0:	00 0b       	rts	
  3009e2:	00 09       	nop	
  3009e4:	00 30       	.word 0x0030
  3009e6:	a5 30       	bra	30144a <_new_viscell+0xde>
  3009e8:	00 30       	.word 0x0030
  3009ea:	08 0c       	mov.b	@(r0,r0),r8
  3009ec:	00 30       	.word 0x0030
  3009ee:	89 d8       	bt	3009a2 <_print_mat+0xa2>
  3009f0:	00 30       	.word 0x0030
  3009f2:	c7 58       	mova	300b54 <_pivot_column+0x3c>,r0
  3009f4:	00 30       	.word 0x0030
  3009f6:	9b ec       	mov.w	300bd2 <_pivot_column+0xba>,r11	! 7104
  3009f8:	00 30       	.word 0x0030
  3009fa:	c7 5c       	mova	300b6c <_pivot_column+0x54>,r0
  3009fc:	00 30       	.word 0x0030
  3009fe:	a5 24       	bra	30144a <_new_viscell+0xde>

00300a00 <_isoptimal>:
  300a00:	2f 86       	mov.l	r8,@-r15
  300a02:	2f e6       	mov.l	r14,@-r15
  300a04:	4f 22       	sts.l	pr,@-r15
  300a06:	7f b8       	add	#-72,r15
  300a08:	6e f3       	mov	r15,r14
  300a0a:	61 e3       	mov	r14,r1
  300a0c:	71 08       	add	#8,r1
  300a0e:	11 42       	mov.l	r4,@(8,r1)
  300a10:	61 e3       	mov	r14,r1
  300a12:	71 08       	add	#8,r1
  300a14:	51 12       	mov.l	@(8,r1),r1
  300a16:	61 12       	mov.l	@r1,r1
  300a18:	63 13       	mov	r1,r3
  300a1a:	73 ff       	add	#-1,r3
  300a1c:	62 e3       	mov	r14,r2
  300a1e:	72 34       	add	#52,r2
  300a20:	61 e3       	mov	r14,r1
  300a22:	71 08       	add	#8,r1
  300a24:	e6 00       	mov	#0,r6
  300a26:	65 33       	mov	r3,r5
  300a28:	54 12       	mov.l	@(8,r1),r4
  300a2a:	d1 37       	mov.l	300b08 <_isoptimal+0x108>,r1	! 30080c <_get>
  300a2c:	41 0b       	jsr	@r1
  300a2e:	00 09       	nop	
  300a30:	61 e3       	mov	r14,r1
  300a32:	71 08       	add	#8,r1
  300a34:	e2 00       	mov	#0,r2
  300a36:	11 2f       	mov.l	r2,@(60,r1)
  300a38:	a0 43       	bra	300ac2 <_isoptimal+0xc2>
  300a3a:	00 09       	nop	
  300a3c:	61 e3       	mov	r14,r1
  300a3e:	71 08       	add	#8,r1
  300a40:	51 12       	mov.l	@(8,r1),r1
  300a42:	61 12       	mov.l	@r1,r1
  300a44:	67 13       	mov	r1,r7
  300a46:	77 ff       	add	#-1,r7
  300a48:	68 e3       	mov	r14,r8
  300a4a:	78 24       	add	#36,r8
  300a4c:	63 e3       	mov	r14,r3
  300a4e:	73 08       	add	#8,r3
  300a50:	61 e3       	mov	r14,r1
  300a52:	71 08       	add	#8,r1
  300a54:	62 e3       	mov	r14,r2
  300a56:	56 3f       	mov.l	@(60,r3),r6
  300a58:	65 73       	mov	r7,r5
  300a5a:	54 12       	mov.l	@(8,r1),r4
  300a5c:	d1 2a       	mov.l	300b08 <_isoptimal+0x108>,r1	! 30080c <_get>
  300a5e:	41 0b       	jsr	@r1
  300a60:	00 09       	nop	
  300a62:	61 e3       	mov	r14,r1
  300a64:	62 12       	mov.l	@r1,r2
  300a66:	28 22       	mov.l	r2,@r8
  300a68:	71 04       	add	#4,r1
  300a6a:	62 12       	mov.l	@r1,r2
  300a6c:	18 21       	mov.l	r2,@(4,r8)
  300a6e:	71 04       	add	#4,r1
  300a70:	62 12       	mov.l	@r1,r2
  300a72:	18 22       	mov.l	r2,@(8,r8)
  300a74:	71 04       	add	#4,r1
  300a76:	62 12       	mov.l	@r1,r2
  300a78:	18 23       	mov.l	r2,@(12,r8)
  300a7a:	71 04       	add	#4,r1
  300a7c:	62 e3       	mov	r14,r2
  300a7e:	72 34       	add	#52,r2
  300a80:	61 e3       	mov	r14,r1
  300a82:	71 24       	add	#36,r1
  300a84:	65 23       	mov	r2,r5
  300a86:	64 13       	mov	r1,r4
  300a88:	d1 20       	mov.l	300b0c <_isoptimal+0x10c>,r1	! 309094 <_BigM_lt>
  300a8a:	41 0b       	jsr	@r1
  300a8c:	00 09       	nop	
  300a8e:	61 03       	mov	r0,r1
  300a90:	21 18       	tst	r1,r1
  300a92:	89 0f       	bt	300ab4 <_isoptimal+0xb4>
  300a94:	62 e3       	mov	r14,r2
  300a96:	72 34       	add	#52,r2
  300a98:	61 e3       	mov	r14,r1
  300a9a:	71 24       	add	#36,r1
  300a9c:	63 12       	mov.l	@r1,r3
  300a9e:	22 32       	mov.l	r3,@r2
  300aa0:	71 04       	add	#4,r1
  300aa2:	63 12       	mov.l	@r1,r3
  300aa4:	12 31       	mov.l	r3,@(4,r2)
  300aa6:	71 04       	add	#4,r1
  300aa8:	63 12       	mov.l	@r1,r3
  300aaa:	12 32       	mov.l	r3,@(8,r2)
  300aac:	71 04       	add	#4,r1
  300aae:	63 12       	mov.l	@r1,r3
  300ab0:	12 33       	mov.l	r3,@(12,r2)
  300ab2:	71 04       	add	#4,r1
  300ab4:	61 e3       	mov	r14,r1
  300ab6:	71 08       	add	#8,r1
  300ab8:	62 e3       	mov	r14,r2
  300aba:	72 08       	add	#8,r2
  300abc:	52 2f       	mov.l	@(60,r2),r2
  300abe:	72 01       	add	#1,r2
  300ac0:	11 2f       	mov.l	r2,@(60,r1)
  300ac2:	61 e3       	mov	r14,r1
  300ac4:	71 08       	add	#8,r1
  300ac6:	51 12       	mov.l	@(8,r1),r1
  300ac8:	51 11       	mov.l	@(4,r1),r1
  300aca:	71 ff       	add	#-1,r1
  300acc:	62 e3       	mov	r14,r2
  300ace:	72 08       	add	#8,r2
  300ad0:	52 2f       	mov.l	@(60,r2),r2
  300ad2:	32 13       	cmp/ge	r1,r2
  300ad4:	8b b2       	bf	300a3c <_isoptimal+0x3c>
  300ad6:	61 e3       	mov	r14,r1
  300ad8:	71 14       	add	#20,r1
  300ada:	62 13       	mov	r1,r2
  300adc:	d1 0c       	mov.l	300b10 <_isoptimal+0x110>,r1	! 30893e <_BigM_zero>
  300ade:	41 0b       	jsr	@r1
  300ae0:	00 09       	nop	
  300ae2:	62 e3       	mov	r14,r2
  300ae4:	72 14       	add	#20,r2
  300ae6:	61 e3       	mov	r14,r1
  300ae8:	71 34       	add	#52,r1
  300aea:	65 23       	mov	r2,r5
  300aec:	64 13       	mov	r1,r4
  300aee:	d1 09       	mov.l	300b14 <_isoptimal+0x114>,r1	! 309254 <_BigM_ge>
  300af0:	41 0b       	jsr	@r1
  300af2:	00 09       	nop	
  300af4:	61 03       	mov	r0,r1
  300af6:	60 13       	mov	r1,r0
  300af8:	7e 48       	add	#72,r14
  300afa:	6f e3       	mov	r14,r15
  300afc:	4f 26       	lds.l	@r15+,pr
  300afe:	6e f6       	mov.l	@r15+,r14
  300b00:	68 f6       	mov.l	@r15+,r8
  300b02:	00 0b       	rts	
  300b04:	00 09       	nop	
  300b06:	00 09       	nop	
  300b08:	00 30       	.word 0x0030
  300b0a:	08 0c       	mov.b	@(r0,r0),r8
  300b0c:	00 30       	.word 0x0030
  300b0e:	90 94       	mov.w	300c3a <_pivot_row+0x1a>,r0	! d179
  300b10:	00 30       	.word 0x0030
  300b12:	89 3e       	bt	300b92 <_pivot_column+0x7a>
  300b14:	00 30       	.word 0x0030
  300b16:	92 54       	mov.w	300bc2 <_pivot_column+0xaa>,r2	! 6312

00300b18 <_pivot_column>:
  300b18:	2f 86       	mov.l	r8,@-r15
  300b1a:	2f e6       	mov.l	r14,@-r15
  300b1c:	4f 22       	sts.l	pr,@-r15
  300b1e:	7f c4       	add	#-60,r15
  300b20:	6e f3       	mov	r15,r14
  300b22:	61 e3       	mov	r14,r1
  300b24:	71 fc       	add	#-4,r1
  300b26:	11 45       	mov.l	r4,@(20,r1)
  300b28:	61 e3       	mov	r14,r1
  300b2a:	71 fc       	add	#-4,r1
  300b2c:	51 15       	mov.l	@(20,r1),r1
  300b2e:	61 12       	mov.l	@r1,r1
  300b30:	63 13       	mov	r1,r3
  300b32:	73 ff       	add	#-1,r3
  300b34:	62 e3       	mov	r14,r2
  300b36:	72 24       	add	#36,r2
  300b38:	61 e3       	mov	r14,r1
  300b3a:	71 fc       	add	#-4,r1
  300b3c:	e6 00       	mov	#0,r6
  300b3e:	65 33       	mov	r3,r5
  300b40:	54 15       	mov.l	@(20,r1),r4
  300b42:	d1 35       	mov.l	300c18 <_pivot_column+0x100>,r1	! 30080c <_get>
  300b44:	41 0b       	jsr	@r1
  300b46:	00 09       	nop	
  300b48:	61 e3       	mov	r14,r1
  300b4a:	71 fc       	add	#-4,r1
  300b4c:	e2 00       	mov	#0,r2
  300b4e:	11 2f       	mov.l	r2,@(60,r1)
  300b50:	61 e3       	mov	r14,r1
  300b52:	71 fc       	add	#-4,r1
  300b54:	e2 00       	mov	#0,r2
  300b56:	11 2e       	mov.l	r2,@(56,r1)
  300b58:	a0 49       	bra	300bee <_pivot_column+0xd6>
  300b5a:	00 09       	nop	
  300b5c:	61 e3       	mov	r14,r1
  300b5e:	71 fc       	add	#-4,r1
  300b60:	51 15       	mov.l	@(20,r1),r1
  300b62:	61 12       	mov.l	@r1,r1
  300b64:	67 13       	mov	r1,r7
  300b66:	77 ff       	add	#-1,r7
  300b68:	68 e3       	mov	r14,r8
  300b6a:	78 14       	add	#20,r8
  300b6c:	63 e3       	mov	r14,r3
  300b6e:	73 fc       	add	#-4,r3
  300b70:	61 e3       	mov	r14,r1
  300b72:	71 fc       	add	#-4,r1
  300b74:	62 e3       	mov	r14,r2
  300b76:	56 3e       	mov.l	@(56,r3),r6
  300b78:	65 73       	mov	r7,r5
  300b7a:	54 15       	mov.l	@(20,r1),r4
  300b7c:	d1 26       	mov.l	300c18 <_pivot_column+0x100>,r1	! 30080c <_get>
  300b7e:	41 0b       	jsr	@r1
  300b80:	00 09       	nop	
  300b82:	61 e3       	mov	r14,r1
  300b84:	62 12       	mov.l	@r1,r2
  300b86:	28 22       	mov.l	r2,@r8
  300b88:	71 04       	add	#4,r1
  300b8a:	62 12       	mov.l	@r1,r2
  300b8c:	18 21       	mov.l	r2,@(4,r8)
  300b8e:	71 04       	add	#4,r1
  300b90:	62 12       	mov.l	@r1,r2
  300b92:	18 22       	mov.l	r2,@(8,r8)
  300b94:	71 04       	add	#4,r1
  300b96:	62 12       	mov.l	@r1,r2
  300b98:	18 23       	mov.l	r2,@(12,r8)
  300b9a:	71 04       	add	#4,r1
  300b9c:	62 e3       	mov	r14,r2
  300b9e:	72 24       	add	#36,r2
  300ba0:	61 e3       	mov	r14,r1
  300ba2:	71 14       	add	#20,r1
  300ba4:	65 23       	mov	r2,r5
  300ba6:	64 13       	mov	r1,r4
  300ba8:	d1 1c       	mov.l	300c1c <_pivot_column+0x104>,r1	! 309094 <_BigM_lt>
  300baa:	41 0b       	jsr	@r1
  300bac:	00 09       	nop	
  300bae:	61 03       	mov	r0,r1
  300bb0:	21 18       	tst	r1,r1
  300bb2:	89 15       	bt	300be0 <_pivot_column+0xc8>
  300bb4:	62 e3       	mov	r14,r2
  300bb6:	72 24       	add	#36,r2
  300bb8:	61 e3       	mov	r14,r1
  300bba:	71 14       	add	#20,r1
  300bbc:	63 12       	mov.l	@r1,r3
  300bbe:	22 32       	mov.l	r3,@r2
  300bc0:	71 04       	add	#4,r1
  300bc2:	63 12       	mov.l	@r1,r3
  300bc4:	12 31       	mov.l	r3,@(4,r2)
  300bc6:	71 04       	add	#4,r1
  300bc8:	63 12       	mov.l	@r1,r3
  300bca:	12 32       	mov.l	r3,@(8,r2)
  300bcc:	71 04       	add	#4,r1
  300bce:	63 12       	mov.l	@r1,r3
  300bd0:	12 33       	mov.l	r3,@(12,r2)
  300bd2:	71 04       	add	#4,r1
  300bd4:	61 e3       	mov	r14,r1
  300bd6:	71 fc       	add	#-4,r1
  300bd8:	62 e3       	mov	r14,r2
  300bda:	72 fc       	add	#-4,r2
  300bdc:	52 2e       	mov.l	@(56,r2),r2
  300bde:	11 2f       	mov.l	r2,@(60,r1)
  300be0:	61 e3       	mov	r14,r1
  300be2:	71 fc       	add	#-4,r1
  300be4:	62 e3       	mov	r14,r2
  300be6:	72 fc       	add	#-4,r2
  300be8:	52 2e       	mov.l	@(56,r2),r2
  300bea:	72 01       	add	#1,r2
  300bec:	11 2e       	mov.l	r2,@(56,r1)
  300bee:	61 e3       	mov	r14,r1
  300bf0:	71 fc       	add	#-4,r1
  300bf2:	51 15       	mov.l	@(20,r1),r1
  300bf4:	51 11       	mov.l	@(4,r1),r1
  300bf6:	71 ff       	add	#-1,r1
  300bf8:	62 e3       	mov	r14,r2
  300bfa:	72 fc       	add	#-4,r2
  300bfc:	52 2e       	mov.l	@(56,r2),r2
  300bfe:	32 13       	cmp/ge	r1,r2
  300c00:	8b ac       	bf	300b5c <_pivot_column+0x44>
  300c02:	61 e3       	mov	r14,r1
  300c04:	71 fc       	add	#-4,r1
  300c06:	51 1f       	mov.l	@(60,r1),r1
  300c08:	60 13       	mov	r1,r0
  300c0a:	7e 3c       	add	#60,r14
  300c0c:	6f e3       	mov	r14,r15
  300c0e:	4f 26       	lds.l	@r15+,pr
  300c10:	6e f6       	mov.l	@r15+,r14
  300c12:	68 f6       	mov.l	@r15+,r8
  300c14:	00 0b       	rts	
  300c16:	00 09       	nop	
  300c18:	00 30       	.word 0x0030
  300c1a:	08 0c       	mov.b	@(r0,r0),r8
  300c1c:	00 30       	.word 0x0030
  300c1e:	90 94       	mov.w	300d4a <_pivot_row+0x12a>,r0	! 1f23

00300c20 <_pivot_row>:
  300c20:	2f 86       	mov.l	r8,@-r15
  300c22:	2f 96       	mov.l	r9,@-r15
  300c24:	2f e6       	mov.l	r14,@-r15
  300c26:	4f 22       	sts.l	pr,@-r15
  300c28:	7f b8       	add	#-72,r15
  300c2a:	7f b8       	add	#-72,r15
  300c2c:	6e f3       	mov	r15,r14
  300c2e:	61 e3       	mov	r14,r1
  300c30:	71 10       	add	#16,r1
  300c32:	11 45       	mov.l	r4,@(20,r1)
  300c34:	61 e3       	mov	r14,r1
  300c36:	71 10       	add	#16,r1
  300c38:	11 54       	mov.l	r5,@(16,r1)
  300c3a:	d1 79       	mov.l	300e20 <_pivot_row+0x200>,r1	! 309570 <_fraction_zero>
  300c3c:	41 0b       	jsr	@r1
  300c3e:	00 09       	nop	
  300c40:	68 03       	mov	r0,r8
  300c42:	69 13       	mov	r1,r9
  300c44:	e5 01       	mov	#1,r5
  300c46:	e4 01       	mov	#1,r4
  300c48:	d1 76       	mov.l	300e24 <_pivot_row+0x204>,r1	! 309428 <_new_fraction>
  300c4a:	41 0b       	jsr	@r1
  300c4c:	00 09       	nop	
  300c4e:	66 03       	mov	r0,r6
  300c50:	67 13       	mov	r1,r7
  300c52:	61 e3       	mov	r14,r1
  300c54:	71 58       	add	#88,r1
  300c56:	62 13       	mov	r1,r2
  300c58:	64 83       	mov	r8,r4
  300c5a:	65 93       	mov	r9,r5
  300c5c:	d1 72       	mov.l	300e28 <_pivot_row+0x208>,r1	! 3088e0 <_new_BigM>
  300c5e:	41 0b       	jsr	@r1
  300c60:	00 09       	nop	
  300c62:	62 e3       	mov	r14,r2
  300c64:	72 48       	add	#72,r2
  300c66:	61 e3       	mov	r14,r1
  300c68:	71 58       	add	#88,r1
  300c6a:	63 12       	mov.l	@r1,r3
  300c6c:	22 32       	mov.l	r3,@r2
  300c6e:	71 04       	add	#4,r1
  300c70:	63 12       	mov.l	@r1,r3
  300c72:	12 31       	mov.l	r3,@(4,r2)
  300c74:	71 04       	add	#4,r1
  300c76:	63 12       	mov.l	@r1,r3
  300c78:	12 32       	mov.l	r3,@(8,r2)
  300c7a:	71 04       	add	#4,r1
  300c7c:	63 12       	mov.l	@r1,r3
  300c7e:	12 33       	mov.l	r3,@(12,r2)
  300c80:	71 04       	add	#4,r1
  300c82:	61 e3       	mov	r14,r1
  300c84:	71 50       	add	#80,r1
  300c86:	e2 00       	mov	#0,r2
  300c88:	11 2f       	mov.l	r2,@(60,r1)
  300c8a:	61 e3       	mov	r14,r1
  300c8c:	71 28       	add	#40,r1
  300c8e:	62 13       	mov	r1,r2
  300c90:	d1 66       	mov.l	300e2c <_pivot_row+0x20c>,r1	! 30893e <_BigM_zero>
  300c92:	41 0b       	jsr	@r1
  300c94:	00 09       	nop	
  300c96:	61 e3       	mov	r14,r1
  300c98:	71 50       	add	#80,r1
  300c9a:	e2 00       	mov	#0,r2
  300c9c:	11 2e       	mov.l	r2,@(56,r1)
  300c9e:	a0 a6       	bra	300dee <_pivot_row+0x1ce>
  300ca0:	00 09       	nop	
  300ca2:	61 e3       	mov	r14,r1
  300ca4:	71 10       	add	#16,r1
  300ca6:	51 14       	mov.l	@(16,r1),r1
  300ca8:	67 12       	mov.l	@r1,r7
  300caa:	62 e3       	mov	r14,r2
  300cac:	72 38       	add	#56,r2
  300cae:	63 e3       	mov	r14,r3
  300cb0:	73 50       	add	#80,r3
  300cb2:	61 e3       	mov	r14,r1
  300cb4:	71 10       	add	#16,r1
  300cb6:	66 73       	mov	r7,r6
  300cb8:	55 3e       	mov.l	@(56,r3),r5
  300cba:	54 15       	mov.l	@(20,r1),r4
  300cbc:	d1 5c       	mov.l	300e30 <_pivot_row+0x210>,r1	! 30080c <_get>
  300cbe:	41 0b       	jsr	@r1
  300cc0:	00 09       	nop	
  300cc2:	61 e3       	mov	r14,r1
  300cc4:	71 68       	add	#104,r1
  300cc6:	62 13       	mov	r1,r2
  300cc8:	d1 58       	mov.l	300e2c <_pivot_row+0x20c>,r1	! 30893e <_BigM_zero>
  300cca:	41 0b       	jsr	@r1
  300ccc:	00 09       	nop	
  300cce:	62 e3       	mov	r14,r2
  300cd0:	72 38       	add	#56,r2
  300cd2:	61 e3       	mov	r14,r1
  300cd4:	71 68       	add	#104,r1
  300cd6:	63 12       	mov.l	@r1,r3
  300cd8:	2f 32       	mov.l	r3,@r15
  300cda:	71 04       	add	#4,r1
  300cdc:	63 12       	mov.l	@r1,r3
  300cde:	1f 31       	mov.l	r3,@(4,r15)
  300ce0:	71 04       	add	#4,r1
  300ce2:	63 12       	mov.l	@r1,r3
  300ce4:	1f 32       	mov.l	r3,@(8,r15)
  300ce6:	71 04       	add	#4,r1
  300ce8:	63 12       	mov.l	@r1,r3
  300cea:	1f 33       	mov.l	r3,@(12,r15)
  300cec:	71 04       	add	#4,r1
  300cee:	64 22       	mov.l	@r2,r4
  300cf0:	55 21       	mov.l	@(4,r2),r5
  300cf2:	56 22       	mov.l	@(8,r2),r6
  300cf4:	57 23       	mov.l	@(12,r2),r7
  300cf6:	d1 4f       	mov.l	300e34 <_pivot_row+0x214>,r1	! 308fd4 <_BigM_eq>
  300cf8:	41 0b       	jsr	@r1
  300cfa:	00 09       	nop	
  300cfc:	61 03       	mov	r0,r1
  300cfe:	21 18       	tst	r1,r1
  300d00:	89 01       	bt	300d06 <_pivot_row+0xe6>
  300d02:	a0 6c       	bra	300dde <_pivot_row+0x1be>
  300d04:	00 09       	nop	
  300d06:	61 e3       	mov	r14,r1
  300d08:	71 10       	add	#16,r1
  300d0a:	51 15       	mov.l	@(20,r1),r1
  300d0c:	51 11       	mov.l	@(4,r1),r1
  300d0e:	67 13       	mov	r1,r7
  300d10:	77 ff       	add	#-1,r7
  300d12:	62 e3       	mov	r14,r2
  300d14:	72 78       	add	#120,r2
  300d16:	63 e3       	mov	r14,r3
  300d18:	73 50       	add	#80,r3
  300d1a:	61 e3       	mov	r14,r1
  300d1c:	71 10       	add	#16,r1
  300d1e:	66 73       	mov	r7,r6
  300d20:	55 3e       	mov.l	@(56,r3),r5
  300d22:	54 15       	mov.l	@(20,r1),r4
  300d24:	d1 42       	mov.l	300e30 <_pivot_row+0x210>,r1	! 30080c <_get>
  300d26:	41 0b       	jsr	@r1
  300d28:	00 09       	nop	
  300d2a:	68 e3       	mov	r14,r8
  300d2c:	78 58       	add	#88,r8
  300d2e:	63 e3       	mov	r14,r3
  300d30:	73 78       	add	#120,r3
  300d32:	61 e3       	mov	r14,r1
  300d34:	71 38       	add	#56,r1
  300d36:	62 12       	mov.l	@r1,r2
  300d38:	2f 22       	mov.l	r2,@r15
  300d3a:	71 04       	add	#4,r1
  300d3c:	62 12       	mov.l	@r1,r2
  300d3e:	1f 21       	mov.l	r2,@(4,r15)
  300d40:	71 04       	add	#4,r1
  300d42:	62 12       	mov.l	@r1,r2
  300d44:	1f 22       	mov.l	r2,@(8,r15)
  300d46:	71 04       	add	#4,r1
  300d48:	62 12       	mov.l	@r1,r2
  300d4a:	1f 23       	mov.l	r2,@(12,r15)
  300d4c:	71 04       	add	#4,r1
  300d4e:	61 e3       	mov	r14,r1
  300d50:	71 10       	add	#16,r1
  300d52:	62 13       	mov	r1,r2
  300d54:	64 32       	mov.l	@r3,r4
  300d56:	55 31       	mov.l	@(4,r3),r5
  300d58:	56 32       	mov.l	@(8,r3),r6
  300d5a:	57 33       	mov.l	@(12,r3),r7
  300d5c:	d1 36       	mov.l	300e38 <_pivot_row+0x218>,r1	! 308e44 <_div_BigM>
  300d5e:	41 0b       	jsr	@r1
  300d60:	00 09       	nop	
  300d62:	61 e3       	mov	r14,r1
  300d64:	71 10       	add	#16,r1
  300d66:	62 12       	mov.l	@r1,r2
  300d68:	28 22       	mov.l	r2,@r8
  300d6a:	71 04       	add	#4,r1
  300d6c:	62 12       	mov.l	@r1,r2
  300d6e:	18 21       	mov.l	r2,@(4,r8)
  300d70:	71 04       	add	#4,r1
  300d72:	62 12       	mov.l	@r1,r2
  300d74:	18 22       	mov.l	r2,@(8,r8)
  300d76:	71 04       	add	#4,r1
  300d78:	62 12       	mov.l	@r1,r2
  300d7a:	18 23       	mov.l	r2,@(12,r8)
  300d7c:	71 04       	add	#4,r1
  300d7e:	62 e3       	mov	r14,r2
  300d80:	72 28       	add	#40,r2
  300d82:	61 e3       	mov	r14,r1
  300d84:	71 58       	add	#88,r1
  300d86:	65 23       	mov	r2,r5
  300d88:	64 13       	mov	r1,r4
  300d8a:	d1 2c       	mov.l	300e3c <_pivot_row+0x21c>,r1	! 309254 <_BigM_ge>
  300d8c:	41 0b       	jsr	@r1
  300d8e:	00 09       	nop	
  300d90:	61 03       	mov	r0,r1
  300d92:	21 18       	tst	r1,r1
  300d94:	89 24       	bt	300de0 <_pivot_row+0x1c0>
  300d96:	62 e3       	mov	r14,r2
  300d98:	72 48       	add	#72,r2
  300d9a:	61 e3       	mov	r14,r1
  300d9c:	71 58       	add	#88,r1
  300d9e:	65 23       	mov	r2,r5
  300da0:	64 13       	mov	r1,r4
  300da2:	d1 27       	mov.l	300e40 <_pivot_row+0x220>,r1	! 309094 <_BigM_lt>
  300da4:	41 0b       	jsr	@r1
  300da6:	00 09       	nop	
  300da8:	61 03       	mov	r0,r1
  300daa:	21 18       	tst	r1,r1
  300dac:	89 18       	bt	300de0 <_pivot_row+0x1c0>
  300dae:	62 e3       	mov	r14,r2
  300db0:	72 48       	add	#72,r2
  300db2:	61 e3       	mov	r14,r1
  300db4:	71 58       	add	#88,r1
  300db6:	63 12       	mov.l	@r1,r3
  300db8:	22 32       	mov.l	r3,@r2
  300dba:	71 04       	add	#4,r1
  300dbc:	63 12       	mov.l	@r1,r3
  300dbe:	12 31       	mov.l	r3,@(4,r2)
  300dc0:	71 04       	add	#4,r1
  300dc2:	63 12       	mov.l	@r1,r3
  300dc4:	12 32       	mov.l	r3,@(8,r2)
  300dc6:	71 04       	add	#4,r1
  300dc8:	63 12       	mov.l	@r1,r3
  300dca:	12 33       	mov.l	r3,@(12,r2)
  300dcc:	71 04       	add	#4,r1
  300dce:	61 e3       	mov	r14,r1
  300dd0:	71 50       	add	#80,r1
  300dd2:	62 e3       	mov	r14,r2
  300dd4:	72 50       	add	#80,r2
  300dd6:	52 2e       	mov.l	@(56,r2),r2
  300dd8:	11 2f       	mov.l	r2,@(60,r1)
  300dda:	a0 01       	bra	300de0 <_pivot_row+0x1c0>
  300ddc:	00 09       	nop	
  300dde:	00 09       	nop	
  300de0:	61 e3       	mov	r14,r1
  300de2:	71 50       	add	#80,r1
  300de4:	62 e3       	mov	r14,r2
  300de6:	72 50       	add	#80,r2
  300de8:	52 2e       	mov.l	@(56,r2),r2
  300dea:	72 01       	add	#1,r2
  300dec:	11 2e       	mov.l	r2,@(56,r1)
  300dee:	61 e3       	mov	r14,r1
  300df0:	71 10       	add	#16,r1
  300df2:	51 15       	mov.l	@(20,r1),r1
  300df4:	61 12       	mov.l	@r1,r1
  300df6:	71 ff       	add	#-1,r1
  300df8:	62 e3       	mov	r14,r2
  300dfa:	72 50       	add	#80,r2
  300dfc:	52 2e       	mov.l	@(56,r2),r2
  300dfe:	32 13       	cmp/ge	r1,r2
  300e00:	89 01       	bt	300e06 <_pivot_row+0x1e6>
  300e02:	af 4e       	bra	300ca2 <_pivot_row+0x82>
  300e04:	00 09       	nop	
  300e06:	61 e3       	mov	r14,r1
  300e08:	71 50       	add	#80,r1
  300e0a:	51 1f       	mov.l	@(60,r1),r1
  300e0c:	60 13       	mov	r1,r0
  300e0e:	7e 48       	add	#72,r14
  300e10:	7e 48       	add	#72,r14
  300e12:	6f e3       	mov	r14,r15
  300e14:	4f 26       	lds.l	@r15+,pr
  300e16:	6e f6       	mov.l	@r15+,r14
  300e18:	69 f6       	mov.l	@r15+,r9
  300e1a:	68 f6       	mov.l	@r15+,r8
  300e1c:	00 0b       	rts	
  300e1e:	00 09       	nop	
  300e20:	00 30       	.word 0x0030
  300e22:	95 70       	mov.w	300f06 <_simplex+0xc2>,r5	! 7104
  300e24:	00 30       	.word 0x0030
  300e26:	94 28       	mov.w	300e7a <_simplex+0x36>,r4	! 62e3
  300e28:	00 30       	.word 0x0030
  300e2a:	88 e0       	cmp/eq	#-32,r0
  300e2c:	00 30       	.word 0x0030
  300e2e:	89 3e       	bt	300eae <_simplex+0x6a>
  300e30:	00 30       	.word 0x0030
  300e32:	08 0c       	mov.b	@(r0,r0),r8
  300e34:	00 30       	.word 0x0030
  300e36:	8f d4       	bf.s	300de2 <_pivot_row+0x1c2>
  300e38:	00 30       	.word 0x0030
  300e3a:	8e 44       	ldre	300ec6 <_simplex+0x82>	! 9
  300e3c:	00 30       	.word 0x0030
  300e3e:	92 54       	mov.w	300eea <_simplex+0xa6>,r2	! d157
  300e40:	00 30       	.word 0x0030
  300e42:	90 94       	mov.w	300f6e <_simplex+0x12a>,r0	! 522f

00300e44 <_simplex>:
  300e44:	2f 86       	mov.l	r8,@-r15
  300e46:	2f 96       	mov.l	r9,@-r15
  300e48:	2f a6       	mov.l	r10,@-r15
  300e4a:	2f b6       	mov.l	r11,@-r15
  300e4c:	2f e6       	mov.l	r14,@-r15
  300e4e:	4f 22       	sts.l	pr,@-r15
  300e50:	7f 84       	add	#-124,r15
  300e52:	7f 88       	add	#-120,r15
  300e54:	6e f3       	mov	r15,r14
  300e56:	68 23       	mov	r2,r8
  300e58:	61 e3       	mov	r14,r1
  300e5a:	71 14       	add	#20,r1
  300e5c:	21 42       	mov.l	r4,@r1
  300e5e:	11 51       	mov.l	r5,@(4,r1)
  300e60:	11 62       	mov.l	r6,@(8,r1)
  300e62:	61 e3       	mov	r14,r1
  300e64:	71 f4       	add	#-12,r1
  300e66:	11 77       	mov.l	r7,@(28,r1)
  300e68:	a2 06       	bra	301278 <_simplex+0x434>
  300e6a:	00 09       	nop	
  300e6c:	61 e3       	mov	r14,r1
  300e6e:	71 14       	add	#20,r1
  300e70:	64 13       	mov	r1,r4
  300e72:	d1 15       	mov.l	300ec8 <_simplex+0x84>,r1	! 300b18 <_pivot_column>
  300e74:	41 0b       	jsr	@r1
  300e76:	00 09       	nop	
  300e78:	61 03       	mov	r0,r1
  300e7a:	62 e3       	mov	r14,r2
  300e7c:	72 34       	add	#52,r2
  300e7e:	12 1f       	mov.l	r1,@(60,r2)
  300e80:	99 20       	mov.w	300ec4 <_simplex+0x80>,r9	! b4
  300e82:	39 ec       	add	r14,r9
  300e84:	62 e3       	mov	r14,r2
  300e86:	72 70       	add	#112,r2
  300e88:	61 e3       	mov	r14,r1
  300e8a:	71 14       	add	#20,r1
  300e8c:	65 23       	mov	r2,r5
  300e8e:	64 13       	mov	r1,r4
  300e90:	d1 0e       	mov.l	300ecc <_simplex+0x88>,r1	! 300c20 <_pivot_row>
  300e92:	41 0b       	jsr	@r1
  300e94:	00 09       	nop	
  300e96:	61 03       	mov	r0,r1
  300e98:	19 1c       	mov.l	r1,@(48,r9)
  300e9a:	61 e3       	mov	r14,r1
  300e9c:	71 34       	add	#52,r1
  300e9e:	57 1f       	mov.l	@(60,r1),r7
  300ea0:	62 e3       	mov	r14,r2
  300ea2:	72 60       	add	#96,r2
  300ea4:	91 0e       	mov.w	300ec4 <_simplex+0x80>,r1	! b4
  300ea6:	31 ec       	add	r14,r1
  300ea8:	63 e3       	mov	r14,r3
  300eaa:	73 14       	add	#20,r3
  300eac:	66 73       	mov	r7,r6
  300eae:	55 1c       	mov.l	@(48,r1),r5
  300eb0:	64 33       	mov	r3,r4
  300eb2:	d1 07       	mov.l	300ed0 <_simplex+0x8c>,r1	! 30080c <_get>
  300eb4:	41 0b       	jsr	@r1
  300eb6:	00 09       	nop	
  300eb8:	91 04       	mov.w	300ec4 <_simplex+0x80>,r1	! b4
  300eba:	31 ec       	add	r14,r1
  300ebc:	e2 00       	mov	#0,r2
  300ebe:	11 2f       	mov.l	r2,@(60,r1)
  300ec0:	a0 50       	bra	300f64 <_simplex+0x120>
  300ec2:	00 09       	nop	
  300ec4:	00 b4       	mov.b	r11,@(r0,r0)
  300ec6:	00 09       	nop	
  300ec8:	00 30       	.word 0x0030
  300eca:	0b 18       	.word 0x0b18
  300ecc:	00 30       	.word 0x0030
  300ece:	0c 20       	.word 0x0c20
  300ed0:	00 30       	.word 0x0030
  300ed2:	08 0c       	mov.b	@(r0,r0),r8
  300ed4:	62 e3       	mov	r14,r2
  300ed6:	72 50       	add	#80,r2
  300ed8:	93 b1       	mov.w	30103e <_simplex+0x1fa>,r3	! b4
  300eda:	33 ec       	add	r14,r3
  300edc:	91 af       	mov.w	30103e <_simplex+0x1fa>,r1	! b4
  300ede:	31 ec       	add	r14,r1
  300ee0:	67 e3       	mov	r14,r7
  300ee2:	77 14       	add	#20,r7
  300ee4:	56 3f       	mov.l	@(60,r3),r6
  300ee6:	55 1c       	mov.l	@(48,r1),r5
  300ee8:	64 73       	mov	r7,r4
  300eea:	d1 57       	mov.l	301048 <_simplex+0x204>,r1	! 30080c <_get>
  300eec:	41 0b       	jsr	@r1
  300eee:	00 09       	nop	
  300ef0:	67 e3       	mov	r14,r7
  300ef2:	77 74       	add	#116,r7
  300ef4:	63 e3       	mov	r14,r3
  300ef6:	73 50       	add	#80,r3
  300ef8:	61 e3       	mov	r14,r1
  300efa:	71 60       	add	#96,r1
  300efc:	62 12       	mov.l	@r1,r2
  300efe:	2f 22       	mov.l	r2,@r15
  300f00:	71 04       	add	#4,r1
  300f02:	62 12       	mov.l	@r1,r2
  300f04:	1f 21       	mov.l	r2,@(4,r15)
  300f06:	71 04       	add	#4,r1
  300f08:	62 12       	mov.l	@r1,r2
  300f0a:	1f 22       	mov.l	r2,@(8,r15)
  300f0c:	71 04       	add	#4,r1
  300f0e:	62 12       	mov.l	@r1,r2
  300f10:	1f 23       	mov.l	r2,@(12,r15)
  300f12:	71 04       	add	#4,r1
  300f14:	62 73       	mov	r7,r2
  300f16:	64 32       	mov.l	@r3,r4
  300f18:	55 31       	mov.l	@(4,r3),r5
  300f1a:	56 32       	mov.l	@(8,r3),r6
  300f1c:	57 33       	mov.l	@(12,r3),r7
  300f1e:	d1 4b       	mov.l	30104c <_simplex+0x208>,r1	! 308e44 <_div_BigM>
  300f20:	41 0b       	jsr	@r1
  300f22:	00 09       	nop	
  300f24:	62 e3       	mov	r14,r2
  300f26:	72 74       	add	#116,r2
  300f28:	96 89       	mov.w	30103e <_simplex+0x1fa>,r6	! b4
  300f2a:	36 ec       	add	r14,r6
  300f2c:	93 87       	mov.w	30103e <_simplex+0x1fa>,r3	! b4
  300f2e:	33 ec       	add	r14,r3
  300f30:	64 e3       	mov	r14,r4
  300f32:	74 14       	add	#20,r4
  300f34:	61 23       	mov	r2,r1
  300f36:	71 04       	add	#4,r1
  300f38:	67 12       	mov.l	@r1,r7
  300f3a:	2f 72       	mov.l	r7,@r15
  300f3c:	71 04       	add	#4,r1
  300f3e:	67 12       	mov.l	@r1,r7
  300f40:	1f 71       	mov.l	r7,@(4,r15)
  300f42:	71 04       	add	#4,r1
  300f44:	67 12       	mov.l	@r1,r7
  300f46:	1f 72       	mov.l	r7,@(8,r15)
  300f48:	71 04       	add	#4,r1
  300f4a:	67 22       	mov.l	@r2,r7
  300f4c:	56 6f       	mov.l	@(60,r6),r6
  300f4e:	55 3c       	mov.l	@(48,r3),r5
  300f50:	d1 3f       	mov.l	301050 <_simplex+0x20c>,r1	! 300868 <_set>
  300f52:	41 0b       	jsr	@r1
  300f54:	00 09       	nop	
  300f56:	91 72       	mov.w	30103e <_simplex+0x1fa>,r1	! b4
  300f58:	31 ec       	add	r14,r1
  300f5a:	92 70       	mov.w	30103e <_simplex+0x1fa>,r2	! b4
  300f5c:	32 ec       	add	r14,r2
  300f5e:	52 2f       	mov.l	@(60,r2),r2
  300f60:	72 01       	add	#1,r2
  300f62:	11 2f       	mov.l	r2,@(60,r1)
  300f64:	61 e3       	mov	r14,r1
  300f66:	71 14       	add	#20,r1
  300f68:	51 11       	mov.l	@(4,r1),r1
  300f6a:	92 68       	mov.w	30103e <_simplex+0x1fa>,r2	! b4
  300f6c:	32 ec       	add	r14,r2
  300f6e:	52 2f       	mov.l	@(60,r2),r2
  300f70:	32 13       	cmp/ge	r1,r2
  300f72:	8b af       	bf	300ed4 <_simplex+0x90>
  300f74:	61 e3       	mov	r14,r1
  300f76:	71 34       	add	#52,r1
  300f78:	57 1f       	mov.l	@(60,r1),r7
  300f7a:	92 61       	mov.w	301040 <_simplex+0x1fc>,r2	! 84
  300f7c:	32 ec       	add	r14,r2
  300f7e:	91 5e       	mov.w	30103e <_simplex+0x1fa>,r1	! b4
  300f80:	31 ec       	add	r14,r1
  300f82:	63 e3       	mov	r14,r3
  300f84:	73 14       	add	#20,r3
  300f86:	66 73       	mov	r7,r6
  300f88:	55 1c       	mov.l	@(48,r1),r5
  300f8a:	64 33       	mov	r3,r4
  300f8c:	d1 2e       	mov.l	301048 <_simplex+0x204>,r1	! 30080c <_get>
  300f8e:	41 0b       	jsr	@r1
  300f90:	00 09       	nop	
  300f92:	e5 01       	mov	#1,r5
  300f94:	e4 01       	mov	#1,r4
  300f96:	d1 2f       	mov.l	301054 <_simplex+0x210>,r1	! 309428 <_new_fraction>
  300f98:	41 0b       	jsr	@r1
  300f9a:	00 09       	nop	
  300f9c:	6a 03       	mov	r0,r10
  300f9e:	6b 13       	mov	r1,r11
  300fa0:	d1 2d       	mov.l	301058 <_simplex+0x214>,r1	! 309570 <_fraction_zero>
  300fa2:	41 0b       	jsr	@r1
  300fa4:	00 09       	nop	
  300fa6:	66 03       	mov	r0,r6
  300fa8:	67 13       	mov	r1,r7
  300faa:	91 4a       	mov.w	301042 <_simplex+0x1fe>,r1	! 94 <_gint_exch_size>
  300fac:	31 ec       	add	r14,r1
  300fae:	62 13       	mov	r1,r2
  300fb0:	64 a3       	mov	r10,r4
  300fb2:	65 b3       	mov	r11,r5
  300fb4:	d1 29       	mov.l	30105c <_simplex+0x218>,r1	! 3088e0 <_new_BigM>
  300fb6:	41 0b       	jsr	@r1
  300fb8:	00 09       	nop	
  300fba:	92 41       	mov.w	301040 <_simplex+0x1fc>,r2	! 84
  300fbc:	32 ec       	add	r14,r2
  300fbe:	91 40       	mov.w	301042 <_simplex+0x1fe>,r1	! 94 <_gint_exch_size>
  300fc0:	31 ec       	add	r14,r1
  300fc2:	63 12       	mov.l	@r1,r3
  300fc4:	2f 32       	mov.l	r3,@r15
  300fc6:	71 04       	add	#4,r1
  300fc8:	63 12       	mov.l	@r1,r3
  300fca:	1f 31       	mov.l	r3,@(4,r15)
  300fcc:	71 04       	add	#4,r1
  300fce:	63 12       	mov.l	@r1,r3
  300fd0:	1f 32       	mov.l	r3,@(8,r15)
  300fd2:	71 04       	add	#4,r1
  300fd4:	63 12       	mov.l	@r1,r3
  300fd6:	1f 33       	mov.l	r3,@(12,r15)
  300fd8:	71 04       	add	#4,r1
  300fda:	64 22       	mov.l	@r2,r4
  300fdc:	55 21       	mov.l	@(4,r2),r5
  300fde:	56 22       	mov.l	@(8,r2),r6
  300fe0:	57 23       	mov.l	@(12,r2),r7
  300fe2:	d1 1f       	mov.l	301060 <_simplex+0x21c>,r1	! 308fd4 <_BigM_eq>
  300fe4:	41 0b       	jsr	@r1
  300fe6:	00 09       	nop	
  300fe8:	61 03       	mov	r0,r1
  300fea:	21 18       	tst	r1,r1
  300fec:	8b 09       	bf	301002 <_simplex+0x1be>
  300fee:	d3 1d       	mov.l	301064 <_simplex+0x220>,r3	! 30c760
  300ff0:	d2 1d       	mov.l	301068 <_simplex+0x224>,r2	! 30c818 <___PRETTY_FUNCTION__.0>
  300ff2:	d1 1e       	mov.l	30106c <_simplex+0x228>,r1	! 30c7b4
  300ff4:	67 33       	mov	r3,r7
  300ff6:	66 23       	mov	r2,r6
  300ff8:	e5 51       	mov	#81,r5
  300ffa:	64 13       	mov	r1,r4
  300ffc:	d1 1c       	mov.l	301070 <_simplex+0x22c>,r1	! 309b74 <___assert_fail>
  300ffe:	41 0b       	jsr	@r1
  301000:	00 09       	nop	
  301002:	61 e3       	mov	r14,r1
  301004:	71 34       	add	#52,r1
  301006:	51 1f       	mov.l	@(60,r1),r1
  301008:	41 08       	shll2	r1
  30100a:	93 1b       	mov.w	301044 <_simplex+0x200>,r3	! fc
  30100c:	33 ec       	add	r14,r3
  30100e:	52 34       	mov.l	@(16,r3),r2
  301010:	31 2c       	add	r2,r1
  301012:	63 12       	mov.l	@r1,r3
  301014:	91 13       	mov.w	30103e <_simplex+0x1fa>,r1	! b4
  301016:	31 ec       	add	r14,r1
  301018:	51 1c       	mov.l	@(48,r1),r1
  30101a:	41 08       	shll2	r1
  30101c:	62 e3       	mov	r14,r2
  30101e:	72 f4       	add	#-12,r2
  301020:	52 27       	mov.l	@(28,r2),r2
  301022:	69 23       	mov	r2,r9
  301024:	39 1c       	add	r1,r9
  301026:	64 33       	mov	r3,r4
  301028:	d1 12       	mov.l	301074 <_simplex+0x230>,r1	! 30a1cc <_strdup>
  30102a:	41 0b       	jsr	@r1
  30102c:	00 09       	nop	
  30102e:	61 03       	mov	r0,r1
  301030:	29 12       	mov.l	r1,@r9
  301032:	91 04       	mov.w	30103e <_simplex+0x1fa>,r1	! b4
  301034:	31 ec       	add	r14,r1
  301036:	e2 00       	mov	#0,r2
  301038:	11 2e       	mov.l	r2,@(56,r1)
  30103a:	a1 13       	bra	301264 <_simplex+0x420>
  30103c:	00 09       	nop	
  30103e:	00 b4       	mov.b	r11,@(r0,r0)
  301040:	00 84       	mov.b	r8,@(r0,r0)
  301042:	00 94       	mov.b	r9,@(r0,r0)
  301044:	00 fc       	mov.b	@(r0,r15),r0
  301046:	00 09       	nop	
  301048:	00 30       	.word 0x0030
  30104a:	08 0c       	mov.b	@(r0,r0),r8
  30104c:	00 30       	.word 0x0030
  30104e:	8e 44       	ldre	3010da <_simplex+0x296>	! 7220
  301050:	00 30       	.word 0x0030
  301052:	08 68       	.word 0x0868
  301054:	00 30       	.word 0x0030
  301056:	94 28       	mov.w	3010aa <_simplex+0x266>,r4	! 9104
  301058:	00 30       	.word 0x0030
  30105a:	95 70       	mov.w	30113e <_simplex+0x2fa>,r5	! 7104
  30105c:	00 30       	.word 0x0030
  30105e:	88 e0       	cmp/eq	#-32,r0
  301060:	00 30       	.word 0x0030
  301062:	8f d4       	bf.s	30100e <_simplex+0x1ca>
  301064:	00 30       	.word 0x0030
  301066:	c7 60       	mova	3011e8 <_simplex+0x3a4>,r0
  301068:	00 30       	.word 0x0030
  30106a:	c8 18       	tst	#24,r0
  30106c:	00 30       	.word 0x0030
  30106e:	c7 b4       	mova	301340 <_GINT_CALL_INC_STOP_function+0x2>,r0
  301070:	00 30       	.word 0x0030
  301072:	9b 74       	mov.w	30115e <_simplex+0x31a>,r11	! 32ec
  301074:	00 30       	.word 0x0030
  301076:	a1 cc       	bra	301412 <_new_viscell+0xa6>
  301078:	92 1d       	mov.w	3010b6 <_simplex+0x272>,r2	! b4
  30107a:	32 ec       	add	r14,r2
  30107c:	91 1b       	mov.w	3010b6 <_simplex+0x272>,r1	! b4
  30107e:	31 ec       	add	r14,r1
  301080:	52 2e       	mov.l	@(56,r2),r2
  301082:	51 1c       	mov.l	@(48,r1),r1
  301084:	32 10       	cmp/eq	r1,r2
  301086:	8b 01       	bf	30108c <_simplex+0x248>
  301088:	a0 e4       	bra	301254 <_simplex+0x410>
  30108a:	00 09       	nop	
  30108c:	61 e3       	mov	r14,r1
  30108e:	71 34       	add	#52,r1
  301090:	57 1f       	mov.l	@(60,r1),r7
  301092:	62 e3       	mov	r14,r2
  301094:	72 40       	add	#64,r2
  301096:	91 0e       	mov.w	3010b6 <_simplex+0x272>,r1	! b4
  301098:	31 ec       	add	r14,r1
  30109a:	63 e3       	mov	r14,r3
  30109c:	73 14       	add	#20,r3
  30109e:	66 73       	mov	r7,r6
  3010a0:	55 1e       	mov.l	@(56,r1),r5
  3010a2:	64 33       	mov	r3,r4
  3010a4:	d1 04       	mov.l	3010b8 <_simplex+0x274>,r1	! 30080c <_get>
  3010a6:	41 0b       	jsr	@r1
  3010a8:	00 09       	nop	
  3010aa:	91 04       	mov.w	3010b6 <_simplex+0x272>,r1	! b4
  3010ac:	31 ec       	add	r14,r1
  3010ae:	e2 00       	mov	#0,r2
  3010b0:	11 2d       	mov.l	r2,@(52,r1)
  3010b2:	a0 73       	bra	30119c <_simplex+0x358>
  3010b4:	00 09       	nop	
  3010b6:	00 b4       	mov.b	r11,@(r0,r0)
  3010b8:	00 30       	.word 0x0030
  3010ba:	08 0c       	mov.b	@(r0,r0),r8
  3010bc:	62 e3       	mov	r14,r2
  3010be:	72 30       	add	#48,r2
  3010c0:	93 af       	mov.w	301222 <_simplex+0x3de>,r3	! b4
  3010c2:	33 ec       	add	r14,r3
  3010c4:	91 ad       	mov.w	301222 <_simplex+0x3de>,r1	! b4
  3010c6:	31 ec       	add	r14,r1
  3010c8:	67 e3       	mov	r14,r7
  3010ca:	77 14       	add	#20,r7
  3010cc:	56 3d       	mov.l	@(52,r3),r6
  3010ce:	55 1c       	mov.l	@(48,r1),r5
  3010d0:	64 73       	mov	r7,r4
  3010d2:	d1 56       	mov.l	30122c <_simplex+0x3e8>,r1	! 30080c <_get>
  3010d4:	41 0b       	jsr	@r1
  3010d6:	00 09       	nop	
  3010d8:	62 e3       	mov	r14,r2
  3010da:	72 20       	add	#32,r2
  3010dc:	93 a1       	mov.w	301222 <_simplex+0x3de>,r3	! b4
  3010de:	33 ec       	add	r14,r3
  3010e0:	91 9f       	mov.w	301222 <_simplex+0x3de>,r1	! b4
  3010e2:	31 ec       	add	r14,r1
  3010e4:	67 e3       	mov	r14,r7
  3010e6:	77 14       	add	#20,r7
  3010e8:	56 3d       	mov.l	@(52,r3),r6
  3010ea:	55 1e       	mov.l	@(56,r1),r5
  3010ec:	64 73       	mov	r7,r4
  3010ee:	d1 4f       	mov.l	30122c <_simplex+0x3e8>,r1	! 30080c <_get>
  3010f0:	41 0b       	jsr	@r1
  3010f2:	00 09       	nop	
  3010f4:	97 96       	mov.w	301224 <_simplex+0x3e0>,r7	! a4
  3010f6:	37 ec       	add	r14,r7
  3010f8:	63 e3       	mov	r14,r3
  3010fa:	73 40       	add	#64,r3
  3010fc:	61 e3       	mov	r14,r1
  3010fe:	71 30       	add	#48,r1
  301100:	62 12       	mov.l	@r1,r2
  301102:	2f 22       	mov.l	r2,@r15
  301104:	71 04       	add	#4,r1
  301106:	62 12       	mov.l	@r1,r2
  301108:	1f 21       	mov.l	r2,@(4,r15)
  30110a:	71 04       	add	#4,r1
  30110c:	62 12       	mov.l	@r1,r2
  30110e:	1f 22       	mov.l	r2,@(8,r15)
  301110:	71 04       	add	#4,r1
  301112:	62 12       	mov.l	@r1,r2
  301114:	1f 23       	mov.l	r2,@(12,r15)
  301116:	71 04       	add	#4,r1
  301118:	62 73       	mov	r7,r2
  30111a:	64 32       	mov.l	@r3,r4
  30111c:	55 31       	mov.l	@(4,r3),r5
  30111e:	56 32       	mov.l	@(8,r3),r6
  301120:	57 33       	mov.l	@(12,r3),r7
  301122:	d1 43       	mov.l	301230 <_simplex+0x3ec>,r1	! 308c98 <_mul_BigM>
  301124:	41 0b       	jsr	@r1
  301126:	00 09       	nop	
  301128:	97 7b       	mov.w	301222 <_simplex+0x3de>,r7	! b4
  30112a:	37 ec       	add	r14,r7
  30112c:	63 e3       	mov	r14,r3
  30112e:	73 20       	add	#32,r3
  301130:	91 78       	mov.w	301224 <_simplex+0x3e0>,r1	! a4
  301132:	31 ec       	add	r14,r1
  301134:	62 12       	mov.l	@r1,r2
  301136:	2f 22       	mov.l	r2,@r15
  301138:	71 04       	add	#4,r1
  30113a:	62 12       	mov.l	@r1,r2
  30113c:	1f 21       	mov.l	r2,@(4,r15)
  30113e:	71 04       	add	#4,r1
  301140:	62 12       	mov.l	@r1,r2
  301142:	1f 22       	mov.l	r2,@(8,r15)
  301144:	71 04       	add	#4,r1
  301146:	62 12       	mov.l	@r1,r2
  301148:	1f 23       	mov.l	r2,@(12,r15)
  30114a:	71 04       	add	#4,r1
  30114c:	62 73       	mov	r7,r2
  30114e:	64 32       	mov.l	@r3,r4
  301150:	55 31       	mov.l	@(4,r3),r5
  301152:	56 32       	mov.l	@(8,r3),r6
  301154:	57 33       	mov.l	@(12,r3),r7
  301156:	d1 37       	mov.l	301234 <_simplex+0x3f0>,r1	! 308c2c <_sub_BigM>
  301158:	41 0b       	jsr	@r1
  30115a:	00 09       	nop	
  30115c:	92 61       	mov.w	301222 <_simplex+0x3de>,r2	! b4
  30115e:	32 ec       	add	r14,r2
  301160:	96 5f       	mov.w	301222 <_simplex+0x3de>,r6	! b4
  301162:	36 ec       	add	r14,r6
  301164:	93 5d       	mov.w	301222 <_simplex+0x3de>,r3	! b4
  301166:	33 ec       	add	r14,r3
  301168:	64 e3       	mov	r14,r4
  30116a:	74 14       	add	#20,r4
  30116c:	61 23       	mov	r2,r1
  30116e:	71 04       	add	#4,r1
  301170:	67 12       	mov.l	@r1,r7
  301172:	2f 72       	mov.l	r7,@r15
  301174:	71 04       	add	#4,r1
  301176:	67 12       	mov.l	@r1,r7
  301178:	1f 71       	mov.l	r7,@(4,r15)
  30117a:	71 04       	add	#4,r1
  30117c:	67 12       	mov.l	@r1,r7
  30117e:	1f 72       	mov.l	r7,@(8,r15)
  301180:	71 04       	add	#4,r1
  301182:	67 22       	mov.l	@r2,r7
  301184:	56 6d       	mov.l	@(52,r6),r6
  301186:	55 3e       	mov.l	@(56,r3),r5
  301188:	d1 2b       	mov.l	301238 <_simplex+0x3f4>,r1	! 300868 <_set>
  30118a:	41 0b       	jsr	@r1
  30118c:	00 09       	nop	
  30118e:	91 48       	mov.w	301222 <_simplex+0x3de>,r1	! b4
  301190:	31 ec       	add	r14,r1
  301192:	92 46       	mov.w	301222 <_simplex+0x3de>,r2	! b4
  301194:	32 ec       	add	r14,r2
  301196:	52 2d       	mov.l	@(52,r2),r2
  301198:	72 01       	add	#1,r2
  30119a:	11 2d       	mov.l	r2,@(52,r1)
  30119c:	61 e3       	mov	r14,r1
  30119e:	71 14       	add	#20,r1
  3011a0:	51 11       	mov.l	@(4,r1),r1
  3011a2:	92 3e       	mov.w	301222 <_simplex+0x3de>,r2	! b4
  3011a4:	32 ec       	add	r14,r2
  3011a6:	52 2d       	mov.l	@(52,r2),r2
  3011a8:	32 13       	cmp/ge	r1,r2
  3011aa:	8b 87       	bf	3010bc <_simplex+0x278>
  3011ac:	61 e3       	mov	r14,r1
  3011ae:	71 34       	add	#52,r1
  3011b0:	57 1f       	mov.l	@(60,r1),r7
  3011b2:	92 38       	mov.w	301226 <_simplex+0x3e2>,r2	! c4
  3011b4:	32 ec       	add	r14,r2
  3011b6:	91 34       	mov.w	301222 <_simplex+0x3de>,r1	! b4
  3011b8:	31 ec       	add	r14,r1
  3011ba:	63 e3       	mov	r14,r3
  3011bc:	73 14       	add	#20,r3
  3011be:	66 73       	mov	r7,r6
  3011c0:	55 1e       	mov.l	@(56,r1),r5
  3011c2:	64 33       	mov	r3,r4
  3011c4:	d1 19       	mov.l	30122c <_simplex+0x3e8>,r1	! 30080c <_get>
  3011c6:	41 0b       	jsr	@r1
  3011c8:	00 09       	nop	
  3011ca:	91 2d       	mov.w	301228 <_simplex+0x3e4>,r1	! d4
  3011cc:	31 ec       	add	r14,r1
  3011ce:	62 13       	mov	r1,r2
  3011d0:	d1 1a       	mov.l	30123c <_simplex+0x3f8>,r1	! 30893e <_BigM_zero>
  3011d2:	41 0b       	jsr	@r1
  3011d4:	00 09       	nop	
  3011d6:	92 26       	mov.w	301226 <_simplex+0x3e2>,r2	! c4
  3011d8:	32 ec       	add	r14,r2
  3011da:	91 25       	mov.w	301228 <_simplex+0x3e4>,r1	! d4
  3011dc:	31 ec       	add	r14,r1
  3011de:	63 12       	mov.l	@r1,r3
  3011e0:	2f 32       	mov.l	r3,@r15
  3011e2:	71 04       	add	#4,r1
  3011e4:	63 12       	mov.l	@r1,r3
  3011e6:	1f 31       	mov.l	r3,@(4,r15)
  3011e8:	71 04       	add	#4,r1
  3011ea:	63 12       	mov.l	@r1,r3
  3011ec:	1f 32       	mov.l	r3,@(8,r15)
  3011ee:	71 04       	add	#4,r1
  3011f0:	63 12       	mov.l	@r1,r3
  3011f2:	1f 33       	mov.l	r3,@(12,r15)
  3011f4:	71 04       	add	#4,r1
  3011f6:	64 22       	mov.l	@r2,r4
  3011f8:	55 21       	mov.l	@(4,r2),r5
  3011fa:	56 22       	mov.l	@(8,r2),r6
  3011fc:	57 23       	mov.l	@(12,r2),r7
  3011fe:	d1 10       	mov.l	301240 <_simplex+0x3fc>,r1	! 308fd4 <_BigM_eq>
  301200:	41 0b       	jsr	@r1
  301202:	00 09       	nop	
  301204:	61 03       	mov	r0,r1
  301206:	21 18       	tst	r1,r1
  301208:	8b 25       	bf	301256 <_simplex+0x412>
  30120a:	d3 0e       	mov.l	301244 <_simplex+0x400>,r3	! 30c7e8
  30120c:	d2 0e       	mov.l	301248 <_simplex+0x404>,r2	! 30c818 <___PRETTY_FUNCTION__.0>
  30120e:	d1 0f       	mov.l	30124c <_simplex+0x408>,r1	! 30c7b4
  301210:	67 33       	mov	r3,r7
  301212:	66 23       	mov	r2,r6
  301214:	e5 5e       	mov	#94,r5
  301216:	64 13       	mov	r1,r4
  301218:	d1 0d       	mov.l	301250 <_simplex+0x40c>,r1	! 309b74 <___assert_fail>
  30121a:	41 0b       	jsr	@r1
  30121c:	00 09       	nop	
  30121e:	a0 1a       	bra	301256 <_simplex+0x412>
  301220:	00 09       	nop	
  301222:	00 b4       	mov.b	r11,@(r0,r0)
  301224:	00 a4       	mov.b	r10,@(r0,r0)
  301226:	00 c4       	mov.b	r12,@(r0,r0)
  301228:	00 d4       	mov.b	r13,@(r0,r0)
  30122a:	00 09       	nop	
  30122c:	00 30       	.word 0x0030
  30122e:	08 0c       	mov.b	@(r0,r0),r8
  301230:	00 30       	.word 0x0030
  301232:	8c 98       	ldrs	301366 <_GINT_CALL_INC_STOP_function+0x28>	! 6ef6
  301234:	00 30       	.word 0x0030
  301236:	8c 2c       	ldrs	301292 <_simplex+0x44e>	! 9
  301238:	00 30       	.word 0x0030
  30123a:	08 68       	.word 0x0868
  30123c:	00 30       	.word 0x0030
  30123e:	89 3e       	bt	3012be <_simplex+0x47a>
  301240:	00 30       	.word 0x0030
  301242:	8f d4       	bf.s	3011ee <_simplex+0x3aa>
  301244:	00 30       	.word 0x0030
  301246:	c7 e8       	mova	3015e8 <_new_tableux+0x2c>,r0
  301248:	00 30       	.word 0x0030
  30124a:	c8 18       	tst	#24,r0
  30124c:	00 30       	.word 0x0030
  30124e:	c7 b4       	mova	301520 <_draw_cell>,r0
  301250:	00 30       	.word 0x0030
  301252:	9b 74       	mov.w	30133e <_GINT_CALL_INC_STOP_function>,r11	! 2fe6
  301254:	00 09       	nop	
  301256:	91 34       	mov.w	3012c2 <_simplex+0x47e>,r1	! b4
  301258:	31 ec       	add	r14,r1
  30125a:	92 32       	mov.w	3012c2 <_simplex+0x47e>,r2	! b4
  30125c:	32 ec       	add	r14,r2
  30125e:	52 2e       	mov.l	@(56,r2),r2
  301260:	72 01       	add	#1,r2
  301262:	11 2e       	mov.l	r2,@(56,r1)
  301264:	61 e3       	mov	r14,r1
  301266:	71 14       	add	#20,r1
  301268:	61 12       	mov.l	@r1,r1
  30126a:	92 2a       	mov.w	3012c2 <_simplex+0x47e>,r2	! b4
  30126c:	32 ec       	add	r14,r2
  30126e:	52 2e       	mov.l	@(56,r2),r2
  301270:	32 13       	cmp/ge	r1,r2
  301272:	89 01       	bt	301278 <_simplex+0x434>
  301274:	af 00       	bra	301078 <_simplex+0x234>
  301276:	00 09       	nop	
  301278:	61 e3       	mov	r14,r1
  30127a:	71 14       	add	#20,r1
  30127c:	64 13       	mov	r1,r4
  30127e:	d1 11       	mov.l	3012c4 <_simplex+0x480>,r1	! 300a00 <_isoptimal>
  301280:	41 0b       	jsr	@r1
  301282:	00 09       	nop	
  301284:	61 03       	mov	r0,r1
  301286:	e3 01       	mov	#1,r3
  301288:	21 3a       	xor	r3,r1
  30128a:	61 1c       	extu.b	r1,r1
  30128c:	21 18       	tst	r1,r1
  30128e:	89 01       	bt	301294 <_simplex+0x450>
  301290:	ad ec       	bra	300e6c <_simplex+0x28>
  301292:	00 09       	nop	
  301294:	61 e3       	mov	r14,r1
  301296:	71 14       	add	#20,r1
  301298:	62 12       	mov.l	@r1,r2
  30129a:	28 22       	mov.l	r2,@r8
  30129c:	71 04       	add	#4,r1
  30129e:	62 12       	mov.l	@r1,r2
  3012a0:	18 21       	mov.l	r2,@(4,r8)
  3012a2:	71 04       	add	#4,r1
  3012a4:	62 12       	mov.l	@r1,r2
  3012a6:	18 22       	mov.l	r2,@(8,r8)
  3012a8:	71 04       	add	#4,r1
  3012aa:	60 83       	mov	r8,r0
  3012ac:	7e 78       	add	#120,r14
  3012ae:	7e 7c       	add	#124,r14
  3012b0:	6f e3       	mov	r14,r15
  3012b2:	4f 26       	lds.l	@r15+,pr
  3012b4:	6e f6       	mov.l	@r15+,r14
  3012b6:	6b f6       	mov.l	@r15+,r11
  3012b8:	6a f6       	mov.l	@r15+,r10
  3012ba:	69 f6       	mov.l	@r15+,r9
  3012bc:	68 f6       	mov.l	@r15+,r8
  3012be:	00 0b       	rts	
  3012c0:	00 09       	nop	
  3012c2:	00 b4       	mov.b	r11,@(r0,r0)
  3012c4:	00 30       	.word 0x0030
  3012c6:	0a 00       	.word 0x0a00

003012c8 <_GINT_CALL_SET_function>:
  3012c8:	2f e6       	mov.l	r14,@-r15
  3012ca:	7f fc       	add	#-4,r15
  3012cc:	6e f3       	mov	r15,r14
  3012ce:	61 e3       	mov	r14,r1
  3012d0:	71 c4       	add	#-60,r1
  3012d2:	11 4f       	mov.l	r4,@(60,r1)
  3012d4:	61 e3       	mov	r14,r1
  3012d6:	71 c4       	add	#-60,r1
  3012d8:	51 1f       	mov.l	@(60,r1),r1
  3012da:	e2 01       	mov	#1,r2
  3012dc:	21 22       	mov.l	r2,@r1
  3012de:	e1 00       	mov	#0,r1
  3012e0:	60 13       	mov	r1,r0
  3012e2:	7e 04       	add	#4,r14
  3012e4:	6f e3       	mov	r14,r15
  3012e6:	6e f6       	mov.l	@r15+,r14
  3012e8:	00 0b       	rts	
  3012ea:	00 09       	nop	

003012ec <_GINT_CALL_INC_function>:
  3012ec:	2f e6       	mov.l	r14,@-r15
  3012ee:	7f fc       	add	#-4,r15
  3012f0:	6e f3       	mov	r15,r14
  3012f2:	61 e3       	mov	r14,r1
  3012f4:	71 c4       	add	#-60,r1
  3012f6:	11 4f       	mov.l	r4,@(60,r1)
  3012f8:	61 e3       	mov	r14,r1
  3012fa:	71 c4       	add	#-60,r1
  3012fc:	51 1f       	mov.l	@(60,r1),r1
  3012fe:	61 12       	mov.l	@r1,r1
  301300:	62 13       	mov	r1,r2
  301302:	72 01       	add	#1,r2
  301304:	61 e3       	mov	r14,r1
  301306:	71 c4       	add	#-60,r1
  301308:	51 1f       	mov.l	@(60,r1),r1
  30130a:	21 22       	mov.l	r2,@r1
  30130c:	e1 00       	mov	#0,r1
  30130e:	60 13       	mov	r1,r0
  301310:	7e 04       	add	#4,r14
  301312:	6f e3       	mov	r14,r15
  301314:	6e f6       	mov.l	@r15+,r14
  301316:	00 0b       	rts	
  301318:	00 09       	nop	

0030131a <_GINT_CALL_SET_STOP_function>:
  30131a:	2f e6       	mov.l	r14,@-r15
  30131c:	7f fc       	add	#-4,r15
  30131e:	6e f3       	mov	r15,r14
  301320:	61 e3       	mov	r14,r1
  301322:	71 c4       	add	#-60,r1
  301324:	11 4f       	mov.l	r4,@(60,r1)
  301326:	61 e3       	mov	r14,r1
  301328:	71 c4       	add	#-60,r1
  30132a:	51 1f       	mov.l	@(60,r1),r1
  30132c:	e2 01       	mov	#1,r2
  30132e:	21 22       	mov.l	r2,@r1
  301330:	e1 01       	mov	#1,r1
  301332:	60 13       	mov	r1,r0
  301334:	7e 04       	add	#4,r14
  301336:	6f e3       	mov	r14,r15
  301338:	6e f6       	mov.l	@r15+,r14
  30133a:	00 0b       	rts	
  30133c:	00 09       	nop	

0030133e <_GINT_CALL_INC_STOP_function>:
  30133e:	2f e6       	mov.l	r14,@-r15
  301340:	7f fc       	add	#-4,r15
  301342:	6e f3       	mov	r15,r14
  301344:	61 e3       	mov	r14,r1
  301346:	71 c4       	add	#-60,r1
  301348:	11 4f       	mov.l	r4,@(60,r1)
  30134a:	61 e3       	mov	r14,r1
  30134c:	71 c4       	add	#-60,r1
  30134e:	51 1f       	mov.l	@(60,r1),r1
  301350:	61 12       	mov.l	@r1,r1
  301352:	62 13       	mov	r1,r2
  301354:	72 01       	add	#1,r2
  301356:	61 e3       	mov	r14,r1
  301358:	71 c4       	add	#-60,r1
  30135a:	51 1f       	mov.l	@(60,r1),r1
  30135c:	21 22       	mov.l	r2,@r1
  30135e:	e1 01       	mov	#1,r1
  301360:	60 13       	mov	r1,r0
  301362:	7e 04       	add	#4,r14
  301364:	6f e3       	mov	r14,r15
  301366:	6e f6       	mov.l	@r15+,r14
  301368:	00 0b       	rts	
  30136a:	00 09       	nop	

0030136c <_new_viscell>:
  30136c:	2f 86       	mov.l	r8,@-r15
  30136e:	2f e6       	mov.l	r14,@-r15
  301370:	4f 22       	sts.l	pr,@-r15
  301372:	7f e8       	add	#-24,r15
  301374:	6e f3       	mov	r15,r14
  301376:	61 e3       	mov	r14,r1
  301378:	71 d8       	add	#-40,r1
  30137a:	11 4e       	mov.l	r4,@(56,r1)
  30137c:	61 e3       	mov	r14,r1
  30137e:	71 d8       	add	#-40,r1
  301380:	11 5d       	mov.l	r5,@(52,r1)
  301382:	61 e3       	mov	r14,r1
  301384:	71 d8       	add	#-40,r1
  301386:	11 6c       	mov.l	r6,@(48,r1)
  301388:	61 e3       	mov	r14,r1
  30138a:	71 d8       	add	#-40,r1
  30138c:	11 7b       	mov.l	r7,@(44,r1)
  30138e:	52 e9       	mov.l	@(36,r14),r2
  301390:	61 e3       	mov	r14,r1
  301392:	71 f8       	add	#-8,r1
  301394:	60 23       	mov	r2,r0
  301396:	80 18       	mov.b	r0,@(8,r1)
  301398:	68 e3       	mov	r14,r8
  30139a:	78 d8       	add	#-40,r8
  30139c:	e4 1c       	mov	#28,r4
  30139e:	d1 2e       	mov.l	301458 <_new_viscell+0xec>,r1	! 30a530 <_malloc>
  3013a0:	41 0b       	jsr	@r1
  3013a2:	00 09       	nop	
  3013a4:	61 03       	mov	r0,r1
  3013a6:	18 1f       	mov.l	r1,@(60,r8)
  3013a8:	61 e3       	mov	r14,r1
  3013aa:	71 d8       	add	#-40,r1
  3013ac:	51 1f       	mov.l	@(60,r1),r1
  3013ae:	62 e3       	mov	r14,r2
  3013b0:	72 d8       	add	#-40,r2
  3013b2:	52 2e       	mov.l	@(56,r2),r2
  3013b4:	21 22       	mov.l	r2,@r1
  3013b6:	61 e3       	mov	r14,r1
  3013b8:	71 d8       	add	#-40,r1
  3013ba:	51 1f       	mov.l	@(60,r1),r1
  3013bc:	62 e3       	mov	r14,r2
  3013be:	72 d8       	add	#-40,r2
  3013c0:	52 2d       	mov.l	@(52,r2),r2
  3013c2:	11 21       	mov.l	r2,@(4,r1)
  3013c4:	61 e3       	mov	r14,r1
  3013c6:	71 d8       	add	#-40,r1
  3013c8:	51 1f       	mov.l	@(60,r1),r1
  3013ca:	62 e3       	mov	r14,r2
  3013cc:	72 d8       	add	#-40,r2
  3013ce:	52 2c       	mov.l	@(48,r2),r2
  3013d0:	11 22       	mov.l	r2,@(8,r1)
  3013d2:	61 e3       	mov	r14,r1
  3013d4:	71 d8       	add	#-40,r1
  3013d6:	51 1f       	mov.l	@(60,r1),r1
  3013d8:	62 e3       	mov	r14,r2
  3013da:	72 d8       	add	#-40,r2
  3013dc:	52 2b       	mov.l	@(44,r2),r2
  3013de:	11 23       	mov.l	r2,@(12,r1)
  3013e0:	61 e3       	mov	r14,r1
  3013e2:	71 d8       	add	#-40,r1
  3013e4:	51 1f       	mov.l	@(60,r1),r1
  3013e6:	71 10       	add	#16,r1
  3013e8:	62 e3       	mov	r14,r2
  3013ea:	72 f8       	add	#-8,r2
  3013ec:	84 28       	mov.b	@(8,r2),r0
  3013ee:	62 03       	mov	r0,r2
  3013f0:	21 20       	mov.b	r2,@r1
  3013f2:	61 e3       	mov	r14,r1
  3013f4:	71 d8       	add	#-40,r1
  3013f6:	51 1f       	mov.l	@(60,r1),r1
  3013f8:	71 10       	add	#16,r1
  3013fa:	e2 00       	mov	#0,r2
  3013fc:	60 23       	mov	r2,r0
  3013fe:	80 11       	mov.b	r0,@(1,r1)
  301400:	61 e3       	mov	r14,r1
  301402:	71 d8       	add	#-40,r1
  301404:	51 1f       	mov.l	@(60,r1),r1
  301406:	71 10       	add	#16,r1
  301408:	e2 00       	mov	#0,r2
  30140a:	60 23       	mov	r2,r0
  30140c:	80 12       	mov.b	r0,@(2,r1)
  30140e:	61 e3       	mov	r14,r1
  301410:	71 d8       	add	#-40,r1
  301412:	51 1f       	mov.l	@(60,r1),r1
  301414:	e2 ff       	mov	#-1,r2
  301416:	60 23       	mov	r2,r0
  301418:	81 1a       	mov.w	r0,@(20,r1)
  30141a:	e5 01       	mov	#1,r5
  30141c:	e4 14       	mov	#20,r4
  30141e:	d1 0f       	mov.l	30145c <_new_viscell+0xf0>,r1	! 30a10c <_calloc>
  301420:	41 0b       	jsr	@r1
  301422:	00 09       	nop	
  301424:	61 03       	mov	r0,r1
  301426:	62 e3       	mov	r14,r2
  301428:	72 d8       	add	#-40,r2
  30142a:	52 2f       	mov.l	@(60,r2),r2
  30142c:	12 16       	mov.l	r1,@(24,r2)
  30142e:	61 e3       	mov	r14,r1
  301430:	71 d8       	add	#-40,r1
  301432:	51 1f       	mov.l	@(60,r1),r1
  301434:	51 16       	mov.l	@(24,r1),r1
  301436:	55 ea       	mov.l	@(40,r14),r5
  301438:	64 13       	mov	r1,r4
  30143a:	d1 09       	mov.l	301460 <_new_viscell+0xf4>,r1	! 30a1b6 <_strcpy>
  30143c:	41 0b       	jsr	@r1
  30143e:	00 09       	nop	
  301440:	61 e3       	mov	r14,r1
  301442:	71 d8       	add	#-40,r1
  301444:	51 1f       	mov.l	@(60,r1),r1
  301446:	60 13       	mov	r1,r0
  301448:	7e 18       	add	#24,r14
  30144a:	6f e3       	mov	r14,r15
  30144c:	4f 26       	lds.l	@r15+,pr
  30144e:	6e f6       	mov.l	@r15+,r14
  301450:	68 f6       	mov.l	@r15+,r8
  301452:	00 0b       	rts	
  301454:	00 09       	nop	
  301456:	00 09       	nop	
  301458:	00 30       	.word 0x0030
  30145a:	a5 30       	bra	301ebe <_extract_grid+0x13a>
  30145c:	00 30       	.word 0x0030
  30145e:	a1 0c       	bra	30167a <_new_tableux+0xbe>
  301460:	00 30       	.word 0x0030
  301462:	a1 b6       	bra	3017d2 <_new_tableux+0x216>

00301464 <_free_viscell>:
  301464:	2f e6       	mov.l	r14,@-r15
  301466:	4f 22       	sts.l	pr,@-r15
  301468:	7f fc       	add	#-4,r15
  30146a:	6e f3       	mov	r15,r14
  30146c:	61 e3       	mov	r14,r1
  30146e:	71 c4       	add	#-60,r1
  301470:	11 4f       	mov.l	r4,@(60,r1)
  301472:	61 e3       	mov	r14,r1
  301474:	71 c4       	add	#-60,r1
  301476:	51 1f       	mov.l	@(60,r1),r1
  301478:	51 16       	mov.l	@(24,r1),r1
  30147a:	64 13       	mov	r1,r4
  30147c:	d1 07       	mov.l	30149c <_free_viscell+0x38>,r1	! 30a524 <_free>
  30147e:	41 0b       	jsr	@r1
  301480:	00 09       	nop	
  301482:	61 e3       	mov	r14,r1
  301484:	71 c4       	add	#-60,r1
  301486:	54 1f       	mov.l	@(60,r1),r4
  301488:	d1 04       	mov.l	30149c <_free_viscell+0x38>,r1	! 30a524 <_free>
  30148a:	41 0b       	jsr	@r1
  30148c:	00 09       	nop	
  30148e:	00 09       	nop	
  301490:	7e 04       	add	#4,r14
  301492:	6f e3       	mov	r14,r15
  301494:	4f 26       	lds.l	@r15+,pr
  301496:	6e f6       	mov.l	@r15+,r14
  301498:	00 0b       	rts	
  30149a:	00 09       	nop	
  30149c:	00 30       	.word 0x0030
  30149e:	a5 24       	bra	301eea <_extract_grid+0x166>

003014a0 <_draw_cell_contents>:
  3014a0:	2f 86       	mov.l	r8,@-r15
  3014a2:	2f e6       	mov.l	r14,@-r15
  3014a4:	4f 22       	sts.l	pr,@-r15
  3014a6:	7f f8       	add	#-8,r15
  3014a8:	6e f3       	mov	r15,r14
  3014aa:	61 e3       	mov	r14,r1
  3014ac:	71 c8       	add	#-56,r1
  3014ae:	11 4e       	mov.l	r4,@(56,r1)
  3014b0:	68 e3       	mov	r14,r8
  3014b2:	78 c8       	add	#-56,r8
  3014b4:	d1 18       	mov.l	301518 <_draw_cell_contents+0x78>,r1	! 304f40 <_dfont_default>
  3014b6:	41 0b       	jsr	@r1
  3014b8:	00 09       	nop	
  3014ba:	61 03       	mov	r0,r1
  3014bc:	18 1f       	mov.l	r1,@(60,r8)
  3014be:	61 e3       	mov	r14,r1
  3014c0:	71 c8       	add	#-56,r1
  3014c2:	51 1e       	mov.l	@(56,r1),r1
  3014c4:	62 12       	mov.l	@r1,r2
  3014c6:	e1 01       	mov	#1,r1
  3014c8:	31 2c       	add	r2,r1
  3014ca:	63 13       	mov	r1,r3
  3014cc:	73 01       	add	#1,r3
  3014ce:	61 e3       	mov	r14,r1
  3014d0:	71 c8       	add	#-56,r1
  3014d2:	51 1e       	mov.l	@(56,r1),r1
  3014d4:	52 11       	mov.l	@(4,r1),r2
  3014d6:	61 e3       	mov	r14,r1
  3014d8:	71 c8       	add	#-56,r1
  3014da:	51 1e       	mov.l	@(56,r1),r1
  3014dc:	51 13       	mov.l	@(12,r1),r1
  3014de:	31 2c       	add	r2,r1
  3014e0:	62 e3       	mov	r14,r2
  3014e2:	72 c8       	add	#-56,r2
  3014e4:	52 2f       	mov.l	@(60,r2),r2
  3014e6:	84 25       	mov.b	@(5,r2),r0
  3014e8:	62 03       	mov	r0,r2
  3014ea:	62 2c       	extu.b	r2,r2
  3014ec:	31 28       	sub	r2,r1
  3014ee:	62 13       	mov	r1,r2
  3014f0:	72 ff       	add	#-1,r2
  3014f2:	61 e3       	mov	r14,r1
  3014f4:	71 c8       	add	#-56,r1
  3014f6:	51 1e       	mov.l	@(56,r1),r1
  3014f8:	51 16       	mov.l	@(24,r1),r1
  3014fa:	67 13       	mov	r1,r7
  3014fc:	e6 00       	mov	#0,r6
  3014fe:	65 23       	mov	r2,r5
  301500:	64 33       	mov	r3,r4
  301502:	d1 06       	mov.l	30151c <_draw_cell_contents+0x7c>,r1	! 304f04 <_dtext>
  301504:	41 0b       	jsr	@r1
  301506:	00 09       	nop	
  301508:	00 09       	nop	
  30150a:	7e 08       	add	#8,r14
  30150c:	6f e3       	mov	r14,r15
  30150e:	4f 26       	lds.l	@r15+,pr
  301510:	6e f6       	mov.l	@r15+,r14
  301512:	68 f6       	mov.l	@r15+,r8
  301514:	00 0b       	rts	
  301516:	00 09       	nop	
  301518:	00 30       	.word 0x0030
  30151a:	4f 40       	.word 0x4f40
  30151c:	00 30       	.word 0x0030
  30151e:	4f 04       	rotl	r15

00301520 <_draw_cell>:
  301520:	2f e6       	mov.l	r14,@-r15
  301522:	4f 22       	sts.l	pr,@-r15
  301524:	7f f0       	add	#-16,r15
  301526:	6e f3       	mov	r15,r14
  301528:	61 e3       	mov	r14,r1
  30152a:	71 d0       	add	#-48,r1
  30152c:	11 4f       	mov.l	r4,@(60,r1)
  30152e:	61 e3       	mov	r14,r1
  301530:	71 d0       	add	#-48,r1
  301532:	51 1f       	mov.l	@(60,r1),r1
  301534:	63 12       	mov.l	@r1,r3
  301536:	61 e3       	mov	r14,r1
  301538:	71 d0       	add	#-48,r1
  30153a:	51 1f       	mov.l	@(60,r1),r1
  30153c:	55 11       	mov.l	@(4,r1),r5
  30153e:	61 e3       	mov	r14,r1
  301540:	71 d0       	add	#-48,r1
  301542:	51 1f       	mov.l	@(60,r1),r1
  301544:	62 12       	mov.l	@r1,r2
  301546:	61 e3       	mov	r14,r1
  301548:	71 d0       	add	#-48,r1
  30154a:	51 1f       	mov.l	@(60,r1),r1
  30154c:	51 12       	mov.l	@(8,r1),r1
  30154e:	66 23       	mov	r2,r6
  301550:	36 1c       	add	r1,r6
  301552:	61 e3       	mov	r14,r1
  301554:	71 d0       	add	#-48,r1
  301556:	51 1f       	mov.l	@(60,r1),r1
  301558:	52 11       	mov.l	@(4,r1),r2
  30155a:	61 e3       	mov	r14,r1
  30155c:	71 d0       	add	#-48,r1
  30155e:	51 1f       	mov.l	@(60,r1),r1
  301560:	51 13       	mov.l	@(12,r1),r1
  301562:	67 23       	mov	r2,r7
  301564:	37 1c       	add	r1,r7
  301566:	61 e3       	mov	r14,r1
  301568:	71 d0       	add	#-48,r1
  30156a:	51 1f       	mov.l	@(60,r1),r1
  30156c:	85 1a       	mov.w	@(20,r1),r0
  30156e:	61 03       	mov	r0,r1
  301570:	61 1d       	extu.w	r1,r1
  301572:	64 13       	mov	r1,r4
  301574:	61 e3       	mov	r14,r1
  301576:	71 d0       	add	#-48,r1
  301578:	51 1f       	mov.l	@(60,r1),r1
  30157a:	71 10       	add	#16,r1
  30157c:	61 10       	mov.b	@r1,r1
  30157e:	61 1c       	extu.b	r1,r1
  301580:	62 13       	mov	r1,r2
  301582:	32 2c       	add	r2,r2
  301584:	e1 01       	mov	#1,r1
  301586:	31 2c       	add	r2,r1
  301588:	e2 00       	mov	#0,r2
  30158a:	1f 22       	mov.l	r2,@(8,r15)
  30158c:	1f 11       	mov.l	r1,@(4,r15)
  30158e:	2f 42       	mov.l	r4,@r15
  301590:	64 33       	mov	r3,r4
  301592:	d1 08       	mov.l	3015b4 <_draw_cell+0x94>,r1	! 304e2c <_drect_border>
  301594:	41 0b       	jsr	@r1
  301596:	00 09       	nop	
  301598:	61 e3       	mov	r14,r1
  30159a:	71 d0       	add	#-48,r1
  30159c:	54 1f       	mov.l	@(60,r1),r4
  30159e:	d1 06       	mov.l	3015b8 <_draw_cell+0x98>,r1	! 3014a0 <_draw_cell_contents>
  3015a0:	41 0b       	jsr	@r1
  3015a2:	00 09       	nop	
  3015a4:	00 09       	nop	
  3015a6:	7e 10       	add	#16,r14
  3015a8:	6f e3       	mov	r14,r15
  3015aa:	4f 26       	lds.l	@r15+,pr
  3015ac:	6e f6       	mov.l	@r15+,r14
  3015ae:	00 0b       	rts	
  3015b0:	00 09       	nop	
  3015b2:	00 09       	nop	
  3015b4:	00 30       	.word 0x0030
  3015b6:	4e 2c       	shad	r2,r14
  3015b8:	00 30       	.word 0x0030
  3015ba:	14 a0       	mov.l	r10,@(0,r4)

003015bc <_new_tableux>:
  3015bc:	2f 86       	mov.l	r8,@-r15
  3015be:	2f e6       	mov.l	r14,@-r15
  3015c0:	4f 22       	sts.l	pr,@-r15
  3015c2:	7f d0       	add	#-48,r15
  3015c4:	6e f3       	mov	r15,r14
  3015c6:	62 43       	mov	r4,r2
  3015c8:	63 53       	mov	r5,r3
  3015ca:	61 e3       	mov	r14,r1
  3015cc:	60 23       	mov	r2,r0
  3015ce:	80 1c       	mov.b	r0,@(12,r1)
  3015d0:	61 e3       	mov	r14,r1
  3015d2:	62 33       	mov	r3,r2
  3015d4:	60 23       	mov	r2,r0
  3015d6:	80 18       	mov.b	r0,@(8,r1)
  3015d8:	68 e3       	mov	r14,r8
  3015da:	78 f0       	add	#-16,r8
  3015dc:	e4 08       	mov	#8,r4
  3015de:	d1 3b       	mov.l	3016cc <_new_tableux+0x110>,r1	! 30a530 <_malloc>
  3015e0:	41 0b       	jsr	@r1
  3015e2:	00 09       	nop	
  3015e4:	61 03       	mov	r0,r1
  3015e6:	18 1a       	mov.l	r1,@(40,r8)
  3015e8:	61 e3       	mov	r14,r1
  3015ea:	71 f0       	add	#-16,r1
  3015ec:	51 1a       	mov.l	@(40,r1),r1
  3015ee:	62 e3       	mov	r14,r2
  3015f0:	84 2c       	mov.b	@(12,r2),r0
  3015f2:	62 03       	mov	r0,r2
  3015f4:	21 20       	mov.b	r2,@r1
  3015f6:	61 e3       	mov	r14,r1
  3015f8:	71 f0       	add	#-16,r1
  3015fa:	51 1a       	mov.l	@(40,r1),r1
  3015fc:	62 e3       	mov	r14,r2
  3015fe:	84 28       	mov.b	@(8,r2),r0
  301600:	62 03       	mov	r0,r2
  301602:	60 23       	mov	r2,r0
  301604:	80 11       	mov.b	r0,@(1,r1)
  301606:	61 e3       	mov	r14,r1
  301608:	84 18       	mov.b	@(8,r1),r0
  30160a:	61 03       	mov	r0,r1
  30160c:	61 1c       	extu.b	r1,r1
  30160e:	d2 30       	mov.l	3016d0 <_new_tableux+0x114>,r2	! 30bbe4 <___sdivsi3_i4i>
  301610:	94 5b       	mov.w	3016ca <_new_tableux+0x10e>,r4	! 18a
  301612:	65 13       	mov	r1,r5
  301614:	42 0b       	jsr	@r2
  301616:	00 09       	nop	
  301618:	62 03       	mov	r0,r2
  30161a:	61 e3       	mov	r14,r1
  30161c:	71 f0       	add	#-16,r1
  30161e:	11 29       	mov.l	r2,@(36,r1)
  301620:	d1 2c       	mov.l	3016d4 <_new_tableux+0x118>,r1	! 30c824 <_CELL_W_TO_H_RATIO>
  301622:	61 12       	mov.l	@r1,r1
  301624:	67 13       	mov	r1,r7
  301626:	62 e3       	mov	r14,r2
  301628:	72 f0       	add	#-16,r2
  30162a:	61 e3       	mov	r14,r1
  30162c:	71 f0       	add	#-16,r1
  30162e:	d3 2a       	mov.l	3016d8 <_new_tableux+0x11c>,r3	! 30bb14 <___udivsi3_i4i>
  301630:	54 19       	mov.l	@(36,r1),r4
  301632:	65 73       	mov	r7,r5
  301634:	43 0b       	jsr	@r3
  301636:	00 09       	nop	
  301638:	63 03       	mov	r0,r3
  30163a:	12 38       	mov.l	r3,@(32,r2)
  30163c:	61 e3       	mov	r14,r1
  30163e:	84 1c       	mov.b	@(12,r1),r0
  301640:	61 03       	mov	r0,r1
  301642:	61 1c       	extu.b	r1,r1
  301644:	e5 04       	mov	#4,r5
  301646:	64 13       	mov	r1,r4
  301648:	d1 24       	mov.l	3016dc <_new_tableux+0x120>,r1	! 30a10c <_calloc>
  30164a:	41 0b       	jsr	@r1
  30164c:	00 09       	nop	
  30164e:	61 03       	mov	r0,r1
  301650:	62 e3       	mov	r14,r2
  301652:	72 f0       	add	#-16,r2
  301654:	52 2a       	mov.l	@(40,r2),r2
  301656:	12 11       	mov.l	r1,@(4,r2)
  301658:	61 e3       	mov	r14,r1
  30165a:	71 f0       	add	#-16,r1
  30165c:	e2 00       	mov	#0,r2
  30165e:	11 2f       	mov.l	r2,@(60,r1)
  301660:	a0 1e       	bra	3016a0 <_new_tableux+0xe4>
  301662:	00 09       	nop	
  301664:	61 e3       	mov	r14,r1
  301666:	84 18       	mov.b	@(8,r1),r0
  301668:	61 03       	mov	r0,r1
  30166a:	61 1c       	extu.b	r1,r1
  30166c:	71 01       	add	#1,r1
  30166e:	63 13       	mov	r1,r3
  301670:	61 e3       	mov	r14,r1
  301672:	71 f0       	add	#-16,r1
  301674:	51 1a       	mov.l	@(40,r1),r1
  301676:	52 11       	mov.l	@(4,r1),r2
  301678:	61 e3       	mov	r14,r1
  30167a:	71 f0       	add	#-16,r1
  30167c:	51 1f       	mov.l	@(60,r1),r1
  30167e:	41 08       	shll2	r1
  301680:	68 23       	mov	r2,r8
  301682:	38 1c       	add	r1,r8
  301684:	e5 04       	mov	#4,r5
  301686:	64 33       	mov	r3,r4
  301688:	d1 14       	mov.l	3016dc <_new_tableux+0x120>,r1	! 30a10c <_calloc>
  30168a:	41 0b       	jsr	@r1
  30168c:	00 09       	nop	
  30168e:	61 03       	mov	r0,r1
  301690:	28 12       	mov.l	r1,@r8
  301692:	61 e3       	mov	r14,r1
  301694:	71 f0       	add	#-16,r1
  301696:	62 e3       	mov	r14,r2
  301698:	72 f0       	add	#-16,r2
  30169a:	52 2f       	mov.l	@(60,r2),r2
  30169c:	72 01       	add	#1,r2
  30169e:	11 2f       	mov.l	r2,@(60,r1)
  3016a0:	61 e3       	mov	r14,r1
  3016a2:	84 1c       	mov.b	@(12,r1),r0
  3016a4:	61 03       	mov	r0,r1
  3016a6:	61 1c       	extu.b	r1,r1
  3016a8:	62 e3       	mov	r14,r2
  3016aa:	72 f0       	add	#-16,r2
  3016ac:	52 2f       	mov.l	@(60,r2),r2
  3016ae:	32 13       	cmp/ge	r1,r2
  3016b0:	8b d8       	bf	301664 <_new_tableux+0xa8>
  3016b2:	61 e3       	mov	r14,r1
  3016b4:	71 f0       	add	#-16,r1
  3016b6:	e2 00       	mov	#0,r2
  3016b8:	11 2e       	mov.l	r2,@(56,r1)
  3016ba:	a0 5a       	bra	301772 <_new_tableux+0x1b6>
  3016bc:	00 09       	nop	
  3016be:	61 e3       	mov	r14,r1
  3016c0:	71 f0       	add	#-16,r1
  3016c2:	e2 00       	mov	#0,r2
  3016c4:	11 2d       	mov.l	r2,@(52,r1)
  3016c6:	a0 44       	bra	301752 <_new_tableux+0x196>
  3016c8:	00 09       	nop	
  3016ca:	01 8a       	sts	x0,r1
  3016cc:	00 30       	.word 0x0030
  3016ce:	a5 30       	bra	302132 <_process_cursor_movement+0x1e>
  3016d0:	00 30       	.word 0x0030
  3016d2:	bb e4       	bsr	300e9e <_simplex+0x5a>
  3016d4:	00 30       	.word 0x0030
  3016d6:	c8 24       	tst	#36,r0
  3016d8:	00 30       	.word 0x0030
  3016da:	bb 14       	bsr	300d06 <_pivot_row+0xe6>
  3016dc:	00 30       	.word 0x0030
  3016de:	a1 0c       	bra	3018fa <_new_tableux+0x33e>
  3016e0:	61 e3       	mov	r14,r1
  3016e2:	71 f0       	add	#-16,r1
  3016e4:	52 1d       	mov.l	@(52,r1),r2
  3016e6:	61 e3       	mov	r14,r1
  3016e8:	71 f0       	add	#-16,r1
  3016ea:	51 19       	mov.l	@(36,r1),r1
  3016ec:	02 17       	mul.l	r1,r2
  3016ee:	01 1a       	sts	macl,r1
  3016f0:	64 13       	mov	r1,r4
  3016f2:	61 e3       	mov	r14,r1
  3016f4:	71 f0       	add	#-16,r1
  3016f6:	52 1e       	mov.l	@(56,r1),r2
  3016f8:	61 e3       	mov	r14,r1
  3016fa:	71 f0       	add	#-16,r1
  3016fc:	51 18       	mov.l	@(32,r1),r1
  3016fe:	02 17       	mul.l	r1,r2
  301700:	01 1a       	sts	macl,r1
  301702:	65 13       	mov	r1,r5
  301704:	61 e3       	mov	r14,r1
  301706:	71 f0       	add	#-16,r1
  301708:	53 19       	mov.l	@(36,r1),r3
  30170a:	61 e3       	mov	r14,r1
  30170c:	71 f0       	add	#-16,r1
  30170e:	57 18       	mov.l	@(32,r1),r7
  301710:	61 e3       	mov	r14,r1
  301712:	71 f0       	add	#-16,r1
  301714:	51 1a       	mov.l	@(40,r1),r1
  301716:	52 11       	mov.l	@(4,r1),r2
  301718:	61 e3       	mov	r14,r1
  30171a:	71 f0       	add	#-16,r1
  30171c:	51 1e       	mov.l	@(56,r1),r1
  30171e:	41 08       	shll2	r1
  301720:	31 2c       	add	r2,r1
  301722:	62 12       	mov.l	@r1,r2
  301724:	61 e3       	mov	r14,r1
  301726:	71 f0       	add	#-16,r1
  301728:	51 1d       	mov.l	@(52,r1),r1
  30172a:	41 08       	shll2	r1
  30172c:	68 23       	mov	r2,r8
  30172e:	38 1c       	add	r1,r8
  301730:	d1 79       	mov.l	301918 <_new_tableux+0x35c>,r1	! 30c830
  301732:	1f 11       	mov.l	r1,@(4,r15)
  301734:	e1 00       	mov	#0,r1
  301736:	2f 12       	mov.l	r1,@r15
  301738:	66 33       	mov	r3,r6
  30173a:	d1 78       	mov.l	30191c <_new_tableux+0x360>,r1	! 30136c <_new_viscell>
  30173c:	41 0b       	jsr	@r1
  30173e:	00 09       	nop	
  301740:	61 03       	mov	r0,r1
  301742:	28 12       	mov.l	r1,@r8
  301744:	61 e3       	mov	r14,r1
  301746:	71 f0       	add	#-16,r1
  301748:	62 e3       	mov	r14,r2
  30174a:	72 f0       	add	#-16,r2
  30174c:	52 2d       	mov.l	@(52,r2),r2
  30174e:	72 01       	add	#1,r2
  301750:	11 2d       	mov.l	r2,@(52,r1)
  301752:	61 e3       	mov	r14,r1
  301754:	84 18       	mov.b	@(8,r1),r0
  301756:	61 03       	mov	r0,r1
  301758:	61 1c       	extu.b	r1,r1
  30175a:	62 e3       	mov	r14,r2
  30175c:	72 f0       	add	#-16,r2
  30175e:	52 2d       	mov.l	@(52,r2),r2
  301760:	32 13       	cmp/ge	r1,r2
  301762:	8b bd       	bf	3016e0 <_new_tableux+0x124>
  301764:	61 e3       	mov	r14,r1
  301766:	71 f0       	add	#-16,r1
  301768:	62 e3       	mov	r14,r2
  30176a:	72 f0       	add	#-16,r2
  30176c:	52 2e       	mov.l	@(56,r2),r2
  30176e:	72 01       	add	#1,r2
  301770:	11 2e       	mov.l	r2,@(56,r1)
  301772:	61 e3       	mov	r14,r1
  301774:	84 1c       	mov.b	@(12,r1),r0
  301776:	61 03       	mov	r0,r1
  301778:	61 1c       	extu.b	r1,r1
  30177a:	62 e3       	mov	r14,r2
  30177c:	72 f0       	add	#-16,r2
  30177e:	52 2e       	mov.l	@(56,r2),r2
  301780:	32 13       	cmp/ge	r1,r2
  301782:	8b 9c       	bf	3016be <_new_tableux+0x102>
  301784:	61 e3       	mov	r14,r1
  301786:	71 f0       	add	#-16,r1
  301788:	e2 00       	mov	#0,r2
  30178a:	11 2c       	mov.l	r2,@(48,r1)
  30178c:	a0 24       	bra	3017d8 <_new_tableux+0x21c>
  30178e:	00 09       	nop	
  301790:	61 e3       	mov	r14,r1
  301792:	71 f0       	add	#-16,r1
  301794:	51 1a       	mov.l	@(40,r1),r1
  301796:	52 11       	mov.l	@(4,r1),r2
  301798:	61 e3       	mov	r14,r1
  30179a:	71 f0       	add	#-16,r1
  30179c:	51 1c       	mov.l	@(48,r1),r1
  30179e:	41 08       	shll2	r1
  3017a0:	31 2c       	add	r2,r1
  3017a2:	61 12       	mov.l	@r1,r1
  3017a4:	61 12       	mov.l	@r1,r1
  3017a6:	d2 5e       	mov.l	301920 <_new_tableux+0x364>,r2	! defb
  3017a8:	60 23       	mov	r2,r0
  3017aa:	81 1a       	mov.w	r0,@(20,r1)
  3017ac:	61 e3       	mov	r14,r1
  3017ae:	71 f0       	add	#-16,r1
  3017b0:	51 1a       	mov.l	@(40,r1),r1
  3017b2:	52 11       	mov.l	@(4,r1),r2
  3017b4:	61 e3       	mov	r14,r1
  3017b6:	71 f0       	add	#-16,r1
  3017b8:	51 1c       	mov.l	@(48,r1),r1
  3017ba:	41 08       	shll2	r1
  3017bc:	31 2c       	add	r2,r1
  3017be:	61 12       	mov.l	@r1,r1
  3017c0:	61 12       	mov.l	@r1,r1
  3017c2:	71 10       	add	#16,r1
  3017c4:	e2 01       	mov	#1,r2
  3017c6:	60 23       	mov	r2,r0
  3017c8:	80 12       	mov.b	r0,@(2,r1)
  3017ca:	61 e3       	mov	r14,r1
  3017cc:	71 f0       	add	#-16,r1
  3017ce:	62 e3       	mov	r14,r2
  3017d0:	72 f0       	add	#-16,r2
  3017d2:	52 2c       	mov.l	@(48,r2),r2
  3017d4:	72 01       	add	#1,r2
  3017d6:	11 2c       	mov.l	r2,@(48,r1)
  3017d8:	61 e3       	mov	r14,r1
  3017da:	84 1c       	mov.b	@(12,r1),r0
  3017dc:	61 03       	mov	r0,r1
  3017de:	61 1c       	extu.b	r1,r1
  3017e0:	62 e3       	mov	r14,r2
  3017e2:	72 f0       	add	#-16,r2
  3017e4:	52 2c       	mov.l	@(48,r2),r2
  3017e6:	32 13       	cmp/ge	r1,r2
  3017e8:	8b d2       	bf	301790 <_new_tableux+0x1d4>
  3017ea:	61 e3       	mov	r14,r1
  3017ec:	71 f0       	add	#-16,r1
  3017ee:	e2 00       	mov	#0,r2
  3017f0:	11 2b       	mov.l	r2,@(44,r1)
  3017f2:	a0 24       	bra	30183e <_new_tableux+0x282>
  3017f4:	00 09       	nop	
  3017f6:	61 e3       	mov	r14,r1
  3017f8:	71 f0       	add	#-16,r1
  3017fa:	51 1a       	mov.l	@(40,r1),r1
  3017fc:	51 11       	mov.l	@(4,r1),r1
  3017fe:	62 12       	mov.l	@r1,r2
  301800:	61 e3       	mov	r14,r1
  301802:	71 f0       	add	#-16,r1
  301804:	51 1b       	mov.l	@(44,r1),r1
  301806:	41 08       	shll2	r1
  301808:	31 2c       	add	r2,r1
  30180a:	61 12       	mov.l	@r1,r1
  30180c:	d2 44       	mov.l	301920 <_new_tableux+0x364>,r2	! defb
  30180e:	60 23       	mov	r2,r0
  301810:	81 1a       	mov.w	r0,@(20,r1)
  301812:	61 e3       	mov	r14,r1
  301814:	71 f0       	add	#-16,r1
  301816:	51 1a       	mov.l	@(40,r1),r1
  301818:	51 11       	mov.l	@(4,r1),r1
  30181a:	62 12       	mov.l	@r1,r2
  30181c:	61 e3       	mov	r14,r1
  30181e:	71 f0       	add	#-16,r1
  301820:	51 1b       	mov.l	@(44,r1),r1
  301822:	41 08       	shll2	r1
  301824:	31 2c       	add	r2,r1
  301826:	61 12       	mov.l	@r1,r1
  301828:	71 10       	add	#16,r1
  30182a:	e2 01       	mov	#1,r2
  30182c:	60 23       	mov	r2,r0
  30182e:	80 12       	mov.b	r0,@(2,r1)
  301830:	61 e3       	mov	r14,r1
  301832:	71 f0       	add	#-16,r1
  301834:	62 e3       	mov	r14,r2
  301836:	72 f0       	add	#-16,r2
  301838:	52 2b       	mov.l	@(44,r2),r2
  30183a:	72 01       	add	#1,r2
  30183c:	11 2b       	mov.l	r2,@(44,r1)
  30183e:	61 e3       	mov	r14,r1
  301840:	84 18       	mov.b	@(8,r1),r0
  301842:	61 03       	mov	r0,r1
  301844:	61 1c       	extu.b	r1,r1
  301846:	62 e3       	mov	r14,r2
  301848:	72 f0       	add	#-16,r2
  30184a:	52 2b       	mov.l	@(44,r2),r2
  30184c:	32 13       	cmp/ge	r1,r2
  30184e:	8b d2       	bf	3017f6 <_new_tableux+0x23a>
  301850:	61 e3       	mov	r14,r1
  301852:	71 f0       	add	#-16,r1
  301854:	51 1a       	mov.l	@(40,r1),r1
  301856:	e2 01       	mov	#1,r2
  301858:	60 23       	mov	r2,r0
  30185a:	80 12       	mov.b	r0,@(2,r1)
  30185c:	61 e3       	mov	r14,r1
  30185e:	71 f0       	add	#-16,r1
  301860:	51 1a       	mov.l	@(40,r1),r1
  301862:	e2 00       	mov	#0,r2
  301864:	60 23       	mov	r2,r0
  301866:	80 13       	mov.b	r0,@(3,r1)
  301868:	61 e3       	mov	r14,r1
  30186a:	71 f0       	add	#-16,r1
  30186c:	51 1a       	mov.l	@(40,r1),r1
  30186e:	52 11       	mov.l	@(4,r1),r2
  301870:	61 e3       	mov	r14,r1
  301872:	71 f0       	add	#-16,r1
  301874:	51 1a       	mov.l	@(40,r1),r1
  301876:	84 13       	mov.b	@(3,r1),r0
  301878:	61 03       	mov	r0,r1
  30187a:	61 1c       	extu.b	r1,r1
  30187c:	41 08       	shll2	r1
  30187e:	31 2c       	add	r2,r1
  301880:	62 12       	mov.l	@r1,r2
  301882:	61 e3       	mov	r14,r1
  301884:	71 f0       	add	#-16,r1
  301886:	51 1a       	mov.l	@(40,r1),r1
  301888:	84 12       	mov.b	@(2,r1),r0
  30188a:	61 03       	mov	r0,r1
  30188c:	61 1c       	extu.b	r1,r1
  30188e:	41 08       	shll2	r1
  301890:	31 2c       	add	r2,r1
  301892:	61 12       	mov.l	@r1,r1
  301894:	71 10       	add	#16,r1
  301896:	e2 01       	mov	#1,r2
  301898:	21 20       	mov.b	r2,@r1
  30189a:	61 e3       	mov	r14,r1
  30189c:	71 f0       	add	#-16,r1
  30189e:	51 1a       	mov.l	@(40,r1),r1
  3018a0:	51 11       	mov.l	@(4,r1),r1
  3018a2:	61 12       	mov.l	@r1,r1
  3018a4:	61 12       	mov.l	@r1,r1
  3018a6:	d2 1f       	mov.l	301924 <_new_tableux+0x368>,r2	! 30c834
  3018a8:	11 26       	mov.l	r2,@(24,r1)
  3018aa:	61 e3       	mov	r14,r1
  3018ac:	71 f0       	add	#-16,r1
  3018ae:	51 1a       	mov.l	@(40,r1),r1
  3018b0:	51 11       	mov.l	@(4,r1),r1
  3018b2:	62 12       	mov.l	@r1,r2
  3018b4:	61 e3       	mov	r14,r1
  3018b6:	84 18       	mov.b	@(8,r1),r0
  3018b8:	61 03       	mov	r0,r1
  3018ba:	61 1c       	extu.b	r1,r1
  3018bc:	d3 1a       	mov.l	301928 <_new_tableux+0x36c>,r3	! 3fffffff
  3018be:	31 3c       	add	r3,r1
  3018c0:	41 08       	shll2	r1
  3018c2:	31 2c       	add	r2,r1
  3018c4:	61 12       	mov.l	@r1,r1
  3018c6:	d2 19       	mov.l	30192c <_new_tableux+0x370>,r2	! 30c83c
  3018c8:	11 26       	mov.l	r2,@(24,r1)
  3018ca:	61 e3       	mov	r14,r1
  3018cc:	71 f0       	add	#-16,r1
  3018ce:	51 1a       	mov.l	@(40,r1),r1
  3018d0:	51 11       	mov.l	@(4,r1),r1
  3018d2:	61 12       	mov.l	@r1,r1
  3018d4:	61 12       	mov.l	@r1,r1
  3018d6:	71 10       	add	#16,r1
  3018d8:	e2 00       	mov	#0,r2
  3018da:	60 23       	mov	r2,r0
  3018dc:	80 12       	mov.b	r0,@(2,r1)
  3018de:	61 e3       	mov	r14,r1
  3018e0:	71 f0       	add	#-16,r1
  3018e2:	51 1a       	mov.l	@(40,r1),r1
  3018e4:	51 11       	mov.l	@(4,r1),r1
  3018e6:	62 12       	mov.l	@r1,r2
  3018e8:	61 e3       	mov	r14,r1
  3018ea:	84 18       	mov.b	@(8,r1),r0
  3018ec:	61 03       	mov	r0,r1
  3018ee:	61 1c       	extu.b	r1,r1
  3018f0:	d3 0d       	mov.l	301928 <_new_tableux+0x36c>,r3	! 3fffffff
  3018f2:	31 3c       	add	r3,r1
  3018f4:	41 08       	shll2	r1
  3018f6:	31 2c       	add	r2,r1
  3018f8:	61 12       	mov.l	@r1,r1
  3018fa:	71 10       	add	#16,r1
  3018fc:	e2 00       	mov	#0,r2
  3018fe:	60 23       	mov	r2,r0
  301900:	80 12       	mov.b	r0,@(2,r1)
  301902:	61 e3       	mov	r14,r1
  301904:	71 f0       	add	#-16,r1
  301906:	51 1a       	mov.l	@(40,r1),r1
  301908:	60 13       	mov	r1,r0
  30190a:	7e 30       	add	#48,r14
  30190c:	6f e3       	mov	r14,r15
  30190e:	4f 26       	lds.l	@r15+,pr
  301910:	6e f6       	mov.l	@r15+,r14
  301912:	68 f6       	mov.l	@r15+,r8
  301914:	00 0b       	rts	
  301916:	00 09       	nop	
  301918:	00 30       	.word 0x0030
  30191a:	c8 30       	tst	#48,r0
  30191c:	00 30       	.word 0x0030
  30191e:	13 6c       	mov.l	r6,@(48,r3)
  301920:	00 00       	.word 0x0000
  301922:	de fb       	mov.l	301d10 <_extract_column_names+0x70>,r14	! 312c6312
  301924:	00 30       	.word 0x0030
  301926:	c8 34       	tst	#52,r0
  301928:	3f ff       	addv	r15,r15
  30192a:	ff ff       	.word 0xffff
  30192c:	00 30       	.word 0x0030
  30192e:	c8 3c       	tst	#60,r0

00301930 <_free_tableux>:
  301930:	2f e6       	mov.l	r14,@-r15
  301932:	4f 22       	sts.l	pr,@-r15
  301934:	7f f4       	add	#-12,r15
  301936:	6e f3       	mov	r15,r14
  301938:	61 e3       	mov	r14,r1
  30193a:	71 cc       	add	#-52,r1
  30193c:	11 4d       	mov.l	r4,@(52,r1)
  30193e:	61 e3       	mov	r14,r1
  301940:	71 cc       	add	#-52,r1
  301942:	51 1d       	mov.l	@(52,r1),r1
  301944:	21 18       	tst	r1,r1
  301946:	8b 01       	bf	30194c <_free_tableux+0x1c>
  301948:	a0 81       	bra	301a4e <_free_tableux+0x11e>
  30194a:	00 09       	nop	
  30194c:	61 e3       	mov	r14,r1
  30194e:	71 cc       	add	#-52,r1
  301950:	e2 00       	mov	#0,r2
  301952:	11 2f       	mov.l	r2,@(60,r1)
  301954:	a0 60       	bra	301a18 <_free_tableux+0xe8>
  301956:	00 09       	nop	
  301958:	61 e3       	mov	r14,r1
  30195a:	71 cc       	add	#-52,r1
  30195c:	e2 00       	mov	#0,r2
  30195e:	11 2e       	mov.l	r2,@(56,r1)
  301960:	a0 39       	bra	3019d6 <_free_tableux+0xa6>
  301962:	00 09       	nop	
  301964:	61 e3       	mov	r14,r1
  301966:	71 cc       	add	#-52,r1
  301968:	51 1d       	mov.l	@(52,r1),r1
  30196a:	52 11       	mov.l	@(4,r1),r2
  30196c:	61 e3       	mov	r14,r1
  30196e:	71 cc       	add	#-52,r1
  301970:	51 1f       	mov.l	@(60,r1),r1
  301972:	41 08       	shll2	r1
  301974:	31 2c       	add	r2,r1
  301976:	61 12       	mov.l	@r1,r1
  301978:	21 18       	tst	r1,r1
  30197a:	89 25       	bt	3019c8 <_free_tableux+0x98>
  30197c:	61 e3       	mov	r14,r1
  30197e:	71 cc       	add	#-52,r1
  301980:	51 1d       	mov.l	@(52,r1),r1
  301982:	52 11       	mov.l	@(4,r1),r2
  301984:	61 e3       	mov	r14,r1
  301986:	71 cc       	add	#-52,r1
  301988:	51 1f       	mov.l	@(60,r1),r1
  30198a:	41 08       	shll2	r1
  30198c:	31 2c       	add	r2,r1
  30198e:	62 12       	mov.l	@r1,r2
  301990:	61 e3       	mov	r14,r1
  301992:	71 cc       	add	#-52,r1
  301994:	51 1e       	mov.l	@(56,r1),r1
  301996:	41 08       	shll2	r1
  301998:	31 2c       	add	r2,r1
  30199a:	61 12       	mov.l	@r1,r1
  30199c:	21 18       	tst	r1,r1
  30199e:	89 13       	bt	3019c8 <_free_tableux+0x98>
  3019a0:	61 e3       	mov	r14,r1
  3019a2:	71 cc       	add	#-52,r1
  3019a4:	51 1d       	mov.l	@(52,r1),r1
  3019a6:	52 11       	mov.l	@(4,r1),r2
  3019a8:	61 e3       	mov	r14,r1
  3019aa:	71 cc       	add	#-52,r1
  3019ac:	51 1f       	mov.l	@(60,r1),r1
  3019ae:	41 08       	shll2	r1
  3019b0:	31 2c       	add	r2,r1
  3019b2:	62 12       	mov.l	@r1,r2
  3019b4:	61 e3       	mov	r14,r1
  3019b6:	71 cc       	add	#-52,r1
  3019b8:	51 1e       	mov.l	@(56,r1),r1
  3019ba:	41 08       	shll2	r1
  3019bc:	31 2c       	add	r2,r1
  3019be:	61 12       	mov.l	@r1,r1
  3019c0:	64 13       	mov	r1,r4
  3019c2:	d1 26       	mov.l	301a5c <_free_tableux+0x12c>,r1	! 301464 <_free_viscell>
  3019c4:	41 0b       	jsr	@r1
  3019c6:	00 09       	nop	
  3019c8:	61 e3       	mov	r14,r1
  3019ca:	71 cc       	add	#-52,r1
  3019cc:	62 e3       	mov	r14,r2
  3019ce:	72 cc       	add	#-52,r2
  3019d0:	52 2e       	mov.l	@(56,r2),r2
  3019d2:	72 01       	add	#1,r2
  3019d4:	11 2e       	mov.l	r2,@(56,r1)
  3019d6:	61 e3       	mov	r14,r1
  3019d8:	71 cc       	add	#-52,r1
  3019da:	51 1d       	mov.l	@(52,r1),r1
  3019dc:	84 11       	mov.b	@(1,r1),r0
  3019de:	61 03       	mov	r0,r1
  3019e0:	61 1c       	extu.b	r1,r1
  3019e2:	62 13       	mov	r1,r2
  3019e4:	61 e3       	mov	r14,r1
  3019e6:	71 cc       	add	#-52,r1
  3019e8:	51 1e       	mov.l	@(56,r1),r1
  3019ea:	31 23       	cmp/ge	r2,r1
  3019ec:	8b ba       	bf	301964 <_free_tableux+0x34>
  3019ee:	61 e3       	mov	r14,r1
  3019f0:	71 cc       	add	#-52,r1
  3019f2:	51 1d       	mov.l	@(52,r1),r1
  3019f4:	52 11       	mov.l	@(4,r1),r2
  3019f6:	61 e3       	mov	r14,r1
  3019f8:	71 cc       	add	#-52,r1
  3019fa:	51 1f       	mov.l	@(60,r1),r1
  3019fc:	41 08       	shll2	r1
  3019fe:	31 2c       	add	r2,r1
  301a00:	61 12       	mov.l	@r1,r1
  301a02:	64 13       	mov	r1,r4
  301a04:	d1 16       	mov.l	301a60 <_free_tableux+0x130>,r1	! 30a524 <_free>
  301a06:	41 0b       	jsr	@r1
  301a08:	00 09       	nop	
  301a0a:	61 e3       	mov	r14,r1
  301a0c:	71 cc       	add	#-52,r1
  301a0e:	62 e3       	mov	r14,r2
  301a10:	72 cc       	add	#-52,r2
  301a12:	52 2f       	mov.l	@(60,r2),r2
  301a14:	72 01       	add	#1,r2
  301a16:	11 2f       	mov.l	r2,@(60,r1)
  301a18:	61 e3       	mov	r14,r1
  301a1a:	71 cc       	add	#-52,r1
  301a1c:	51 1d       	mov.l	@(52,r1),r1
  301a1e:	61 10       	mov.b	@r1,r1
  301a20:	61 1c       	extu.b	r1,r1
  301a22:	62 13       	mov	r1,r2
  301a24:	61 e3       	mov	r14,r1
  301a26:	71 cc       	add	#-52,r1
  301a28:	51 1f       	mov.l	@(60,r1),r1
  301a2a:	31 23       	cmp/ge	r2,r1
  301a2c:	8b 94       	bf	301958 <_free_tableux+0x28>
  301a2e:	61 e3       	mov	r14,r1
  301a30:	71 cc       	add	#-52,r1
  301a32:	51 1d       	mov.l	@(52,r1),r1
  301a34:	51 11       	mov.l	@(4,r1),r1
  301a36:	64 13       	mov	r1,r4
  301a38:	d1 09       	mov.l	301a60 <_free_tableux+0x130>,r1	! 30a524 <_free>
  301a3a:	41 0b       	jsr	@r1
  301a3c:	00 09       	nop	
  301a3e:	61 e3       	mov	r14,r1
  301a40:	71 cc       	add	#-52,r1
  301a42:	54 1d       	mov.l	@(52,r1),r4
  301a44:	d1 06       	mov.l	301a60 <_free_tableux+0x130>,r1	! 30a524 <_free>
  301a46:	41 0b       	jsr	@r1
  301a48:	00 09       	nop	
  301a4a:	a0 01       	bra	301a50 <_free_tableux+0x120>
  301a4c:	00 09       	nop	
  301a4e:	00 09       	nop	
  301a50:	7e 0c       	add	#12,r14
  301a52:	6f e3       	mov	r14,r15
  301a54:	4f 26       	lds.l	@r15+,pr
  301a56:	6e f6       	mov.l	@r15+,r14
  301a58:	00 0b       	rts	
  301a5a:	00 09       	nop	
  301a5c:	00 30       	.word 0x0030
  301a5e:	14 64       	mov.l	r6,@(16,r4)
  301a60:	00 30       	.word 0x0030
  301a62:	a5 24       	bra	3024ae <_process_common_keys+0x224>

00301a64 <_display_tableux>:
  301a64:	2f e6       	mov.l	r14,@-r15
  301a66:	4f 22       	sts.l	pr,@-r15
  301a68:	7f f4       	add	#-12,r15
  301a6a:	6e f3       	mov	r15,r14
  301a6c:	61 e3       	mov	r14,r1
  301a6e:	71 cc       	add	#-52,r1
  301a70:	11 4d       	mov.l	r4,@(52,r1)
  301a72:	61 e3       	mov	r14,r1
  301a74:	71 cc       	add	#-52,r1
  301a76:	e2 00       	mov	#0,r2
  301a78:	11 2f       	mov.l	r2,@(60,r1)
  301a7a:	a0 34       	bra	301ae6 <_display_tableux+0x82>
  301a7c:	00 09       	nop	
  301a7e:	61 e3       	mov	r14,r1
  301a80:	71 cc       	add	#-52,r1
  301a82:	e2 00       	mov	#0,r2
  301a84:	11 2e       	mov.l	r2,@(56,r1)
  301a86:	a0 1b       	bra	301ac0 <_display_tableux+0x5c>
  301a88:	00 09       	nop	
  301a8a:	61 e3       	mov	r14,r1
  301a8c:	71 cc       	add	#-52,r1
  301a8e:	51 1d       	mov.l	@(52,r1),r1
  301a90:	52 11       	mov.l	@(4,r1),r2
  301a92:	61 e3       	mov	r14,r1
  301a94:	71 cc       	add	#-52,r1
  301a96:	51 1f       	mov.l	@(60,r1),r1
  301a98:	41 08       	shll2	r1
  301a9a:	31 2c       	add	r2,r1
  301a9c:	62 12       	mov.l	@r1,r2
  301a9e:	61 e3       	mov	r14,r1
  301aa0:	71 cc       	add	#-52,r1
  301aa2:	51 1e       	mov.l	@(56,r1),r1
  301aa4:	41 08       	shll2	r1
  301aa6:	31 2c       	add	r2,r1
  301aa8:	61 12       	mov.l	@r1,r1
  301aaa:	64 13       	mov	r1,r4
  301aac:	d1 17       	mov.l	301b0c <_display_tableux+0xa8>,r1	! 301520 <_draw_cell>
  301aae:	41 0b       	jsr	@r1
  301ab0:	00 09       	nop	
  301ab2:	61 e3       	mov	r14,r1
  301ab4:	71 cc       	add	#-52,r1
  301ab6:	62 e3       	mov	r14,r2
  301ab8:	72 cc       	add	#-52,r2
  301aba:	52 2e       	mov.l	@(56,r2),r2
  301abc:	72 01       	add	#1,r2
  301abe:	11 2e       	mov.l	r2,@(56,r1)
  301ac0:	61 e3       	mov	r14,r1
  301ac2:	71 cc       	add	#-52,r1
  301ac4:	51 1d       	mov.l	@(52,r1),r1
  301ac6:	84 11       	mov.b	@(1,r1),r0
  301ac8:	61 03       	mov	r0,r1
  301aca:	61 1c       	extu.b	r1,r1
  301acc:	62 13       	mov	r1,r2
  301ace:	61 e3       	mov	r14,r1
  301ad0:	71 cc       	add	#-52,r1
  301ad2:	51 1e       	mov.l	@(56,r1),r1
  301ad4:	31 23       	cmp/ge	r2,r1
  301ad6:	8b d8       	bf	301a8a <_display_tableux+0x26>
  301ad8:	61 e3       	mov	r14,r1
  301ada:	71 cc       	add	#-52,r1
  301adc:	62 e3       	mov	r14,r2
  301ade:	72 cc       	add	#-52,r2
  301ae0:	52 2f       	mov.l	@(60,r2),r2
  301ae2:	72 01       	add	#1,r2
  301ae4:	11 2f       	mov.l	r2,@(60,r1)
  301ae6:	61 e3       	mov	r14,r1
  301ae8:	71 cc       	add	#-52,r1
  301aea:	51 1d       	mov.l	@(52,r1),r1
  301aec:	61 10       	mov.b	@r1,r1
  301aee:	61 1c       	extu.b	r1,r1
  301af0:	62 13       	mov	r1,r2
  301af2:	61 e3       	mov	r14,r1
  301af4:	71 cc       	add	#-52,r1
  301af6:	51 1f       	mov.l	@(60,r1),r1
  301af8:	31 23       	cmp/ge	r2,r1
  301afa:	8b c0       	bf	301a7e <_display_tableux+0x1a>
  301afc:	00 09       	nop	
  301afe:	00 09       	nop	
  301b00:	7e 0c       	add	#12,r14
  301b02:	6f e3       	mov	r14,r15
  301b04:	4f 26       	lds.l	@r15+,pr
  301b06:	6e f6       	mov.l	@r15+,r14
  301b08:	00 0b       	rts	
  301b0a:	00 09       	nop	
  301b0c:	00 30       	.word 0x0030
  301b0e:	15 20       	mov.l	r2,@(0,r5)

00301b10 <_update_cursor>:
  301b10:	2f e6       	mov.l	r14,@-r15
  301b12:	7f f4       	add	#-12,r15
  301b14:	6e f3       	mov	r15,r14
  301b16:	62 43       	mov	r4,r2
  301b18:	63 53       	mov	r5,r3
  301b1a:	61 e3       	mov	r14,r1
  301b1c:	71 cc       	add	#-52,r1
  301b1e:	11 6d       	mov.l	r6,@(52,r1)
  301b20:	61 e3       	mov	r14,r1
  301b22:	71 fc       	add	#-4,r1
  301b24:	60 23       	mov	r2,r0
  301b26:	80 1c       	mov.b	r0,@(12,r1)
  301b28:	61 e3       	mov	r14,r1
  301b2a:	71 fc       	add	#-4,r1
  301b2c:	62 33       	mov	r3,r2
  301b2e:	60 23       	mov	r2,r0
  301b30:	80 18       	mov.b	r0,@(8,r1)
  301b32:	61 e3       	mov	r14,r1
  301b34:	71 cc       	add	#-52,r1
  301b36:	51 1d       	mov.l	@(52,r1),r1
  301b38:	52 11       	mov.l	@(4,r1),r2
  301b3a:	61 e3       	mov	r14,r1
  301b3c:	71 cc       	add	#-52,r1
  301b3e:	51 1d       	mov.l	@(52,r1),r1
  301b40:	84 13       	mov.b	@(3,r1),r0
  301b42:	61 03       	mov	r0,r1
  301b44:	61 1c       	extu.b	r1,r1
  301b46:	41 08       	shll2	r1
  301b48:	31 2c       	add	r2,r1
  301b4a:	62 12       	mov.l	@r1,r2
  301b4c:	61 e3       	mov	r14,r1
  301b4e:	71 cc       	add	#-52,r1
  301b50:	51 1d       	mov.l	@(52,r1),r1
  301b52:	84 12       	mov.b	@(2,r1),r0
  301b54:	61 03       	mov	r0,r1
  301b56:	61 1c       	extu.b	r1,r1
  301b58:	41 08       	shll2	r1
  301b5a:	31 2c       	add	r2,r1
  301b5c:	61 12       	mov.l	@r1,r1
  301b5e:	71 10       	add	#16,r1
  301b60:	e2 00       	mov	#0,r2
  301b62:	21 20       	mov.b	r2,@r1
  301b64:	61 e3       	mov	r14,r1
  301b66:	71 cc       	add	#-52,r1
  301b68:	51 1d       	mov.l	@(52,r1),r1
  301b6a:	52 11       	mov.l	@(4,r1),r2
  301b6c:	61 e3       	mov	r14,r1
  301b6e:	71 fc       	add	#-4,r1
  301b70:	84 18       	mov.b	@(8,r1),r0
  301b72:	61 03       	mov	r0,r1
  301b74:	61 1c       	extu.b	r1,r1
  301b76:	41 08       	shll2	r1
  301b78:	31 2c       	add	r2,r1
  301b7a:	62 12       	mov.l	@r1,r2
  301b7c:	61 e3       	mov	r14,r1
  301b7e:	71 fc       	add	#-4,r1
  301b80:	84 1c       	mov.b	@(12,r1),r0
  301b82:	61 03       	mov	r0,r1
  301b84:	61 1c       	extu.b	r1,r1
  301b86:	41 08       	shll2	r1
  301b88:	31 2c       	add	r2,r1
  301b8a:	61 12       	mov.l	@r1,r1
  301b8c:	71 10       	add	#16,r1
  301b8e:	e2 01       	mov	#1,r2
  301b90:	21 20       	mov.b	r2,@r1
  301b92:	61 e3       	mov	r14,r1
  301b94:	71 cc       	add	#-52,r1
  301b96:	51 1d       	mov.l	@(52,r1),r1
  301b98:	62 e3       	mov	r14,r2
  301b9a:	72 fc       	add	#-4,r2
  301b9c:	84 2c       	mov.b	@(12,r2),r0
  301b9e:	62 03       	mov	r0,r2
  301ba0:	60 23       	mov	r2,r0
  301ba2:	80 12       	mov.b	r0,@(2,r1)
  301ba4:	61 e3       	mov	r14,r1
  301ba6:	71 cc       	add	#-52,r1
  301ba8:	51 1d       	mov.l	@(52,r1),r1
  301baa:	62 e3       	mov	r14,r2
  301bac:	72 fc       	add	#-4,r2
  301bae:	84 28       	mov.b	@(8,r2),r0
  301bb0:	62 03       	mov	r0,r2
  301bb2:	60 23       	mov	r2,r0
  301bb4:	80 13       	mov.b	r0,@(3,r1)
  301bb6:	00 09       	nop	
  301bb8:	7e 0c       	add	#12,r14
  301bba:	6f e3       	mov	r14,r15
  301bbc:	6e f6       	mov.l	@r15+,r14
  301bbe:	00 0b       	rts	
  301bc0:	00 09       	nop	

00301bc2 <_extract_row_names>:
  301bc2:	2f 86       	mov.l	r8,@-r15
  301bc4:	2f e6       	mov.l	r14,@-r15
  301bc6:	4f 22       	sts.l	pr,@-r15
  301bc8:	7f f4       	add	#-12,r15
  301bca:	6e f3       	mov	r15,r14
  301bcc:	61 e3       	mov	r14,r1
  301bce:	71 cc       	add	#-52,r1
  301bd0:	11 4d       	mov.l	r4,@(52,r1)
  301bd2:	61 e3       	mov	r14,r1
  301bd4:	71 cc       	add	#-52,r1
  301bd6:	51 1d       	mov.l	@(52,r1),r1
  301bd8:	61 10       	mov.b	@r1,r1
  301bda:	61 1c       	extu.b	r1,r1
  301bdc:	71 ff       	add	#-1,r1
  301bde:	68 e3       	mov	r14,r8
  301be0:	78 cc       	add	#-52,r8
  301be2:	e5 04       	mov	#4,r5
  301be4:	64 13       	mov	r1,r4
  301be6:	d1 2a       	mov.l	301c90 <_extract_row_names+0xce>,r1	! 30a10c <_calloc>
  301be8:	41 0b       	jsr	@r1
  301bea:	00 09       	nop	
  301bec:	61 03       	mov	r0,r1
  301bee:	18 1e       	mov.l	r1,@(56,r8)
  301bf0:	61 e3       	mov	r14,r1
  301bf2:	71 cc       	add	#-52,r1
  301bf4:	e2 01       	mov	#1,r2
  301bf6:	11 2f       	mov.l	r2,@(60,r1)
  301bf8:	a0 34       	bra	301c64 <_extract_row_names+0xa2>
  301bfa:	00 09       	nop	
  301bfc:	61 e3       	mov	r14,r1
  301bfe:	71 cc       	add	#-52,r1
  301c00:	51 1f       	mov.l	@(60,r1),r1
  301c02:	d2 24       	mov.l	301c94 <_extract_row_names+0xd2>,r2	! 3fffffff
  301c04:	31 2c       	add	r2,r1
  301c06:	41 08       	shll2	r1
  301c08:	62 e3       	mov	r14,r2
  301c0a:	72 cc       	add	#-52,r2
  301c0c:	52 2e       	mov.l	@(56,r2),r2
  301c0e:	68 23       	mov	r2,r8
  301c10:	38 1c       	add	r1,r8
  301c12:	e4 19       	mov	#25,r4
  301c14:	d1 20       	mov.l	301c98 <_extract_row_names+0xd6>,r1	! 30a530 <_malloc>
  301c16:	41 0b       	jsr	@r1
  301c18:	00 09       	nop	
  301c1a:	61 03       	mov	r0,r1
  301c1c:	28 12       	mov.l	r1,@r8
  301c1e:	61 e3       	mov	r14,r1
  301c20:	71 cc       	add	#-52,r1
  301c22:	51 1f       	mov.l	@(60,r1),r1
  301c24:	d2 1b       	mov.l	301c94 <_extract_row_names+0xd2>,r2	! 3fffffff
  301c26:	31 2c       	add	r2,r1
  301c28:	41 08       	shll2	r1
  301c2a:	62 e3       	mov	r14,r2
  301c2c:	72 cc       	add	#-52,r2
  301c2e:	52 2e       	mov.l	@(56,r2),r2
  301c30:	31 2c       	add	r2,r1
  301c32:	63 12       	mov.l	@r1,r3
  301c34:	61 e3       	mov	r14,r1
  301c36:	71 cc       	add	#-52,r1
  301c38:	51 1d       	mov.l	@(52,r1),r1
  301c3a:	52 11       	mov.l	@(4,r1),r2
  301c3c:	61 e3       	mov	r14,r1
  301c3e:	71 cc       	add	#-52,r1
  301c40:	51 1f       	mov.l	@(60,r1),r1
  301c42:	41 08       	shll2	r1
  301c44:	31 2c       	add	r2,r1
  301c46:	61 12       	mov.l	@r1,r1
  301c48:	61 12       	mov.l	@r1,r1
  301c4a:	51 16       	mov.l	@(24,r1),r1
  301c4c:	65 13       	mov	r1,r5
  301c4e:	64 33       	mov	r3,r4
  301c50:	d1 12       	mov.l	301c9c <_extract_row_names+0xda>,r1	! 30a1b6 <_strcpy>
  301c52:	41 0b       	jsr	@r1
  301c54:	00 09       	nop	
  301c56:	61 e3       	mov	r14,r1
  301c58:	71 cc       	add	#-52,r1
  301c5a:	62 e3       	mov	r14,r2
  301c5c:	72 cc       	add	#-52,r2
  301c5e:	52 2f       	mov.l	@(60,r2),r2
  301c60:	72 01       	add	#1,r2
  301c62:	11 2f       	mov.l	r2,@(60,r1)
  301c64:	61 e3       	mov	r14,r1
  301c66:	71 cc       	add	#-52,r1
  301c68:	51 1d       	mov.l	@(52,r1),r1
  301c6a:	61 10       	mov.b	@r1,r1
  301c6c:	61 1c       	extu.b	r1,r1
  301c6e:	71 ff       	add	#-1,r1
  301c70:	62 e3       	mov	r14,r2
  301c72:	72 cc       	add	#-52,r2
  301c74:	52 2f       	mov.l	@(60,r2),r2
  301c76:	32 13       	cmp/ge	r1,r2
  301c78:	8b c0       	bf	301bfc <_extract_row_names+0x3a>
  301c7a:	61 e3       	mov	r14,r1
  301c7c:	71 cc       	add	#-52,r1
  301c7e:	51 1e       	mov.l	@(56,r1),r1
  301c80:	60 13       	mov	r1,r0
  301c82:	7e 0c       	add	#12,r14
  301c84:	6f e3       	mov	r14,r15
  301c86:	4f 26       	lds.l	@r15+,pr
  301c88:	6e f6       	mov.l	@r15+,r14
  301c8a:	68 f6       	mov.l	@r15+,r8
  301c8c:	00 0b       	rts	
  301c8e:	00 09       	nop	
  301c90:	00 30       	.word 0x0030
  301c92:	a1 0c       	bra	301eae <_extract_grid+0x12a>
  301c94:	3f ff       	addv	r15,r15
  301c96:	ff ff       	.word 0xffff
  301c98:	00 30       	.word 0x0030
  301c9a:	a5 30       	bra	3026fe <_process_common_keys+0x474>
  301c9c:	00 30       	.word 0x0030
  301c9e:	a1 b6       	bra	30200e <_matrix_into_tableux+0x10e>

00301ca0 <_extract_column_names>:
  301ca0:	2f 86       	mov.l	r8,@-r15
  301ca2:	2f e6       	mov.l	r14,@-r15
  301ca4:	4f 22       	sts.l	pr,@-r15
  301ca6:	7f f4       	add	#-12,r15
  301ca8:	6e f3       	mov	r15,r14
  301caa:	61 e3       	mov	r14,r1
  301cac:	71 cc       	add	#-52,r1
  301cae:	11 4d       	mov.l	r4,@(52,r1)
  301cb0:	61 e3       	mov	r14,r1
  301cb2:	71 cc       	add	#-52,r1
  301cb4:	51 1d       	mov.l	@(52,r1),r1
  301cb6:	84 11       	mov.b	@(1,r1),r0
  301cb8:	61 03       	mov	r0,r1
  301cba:	61 1c       	extu.b	r1,r1
  301cbc:	71 ff       	add	#-1,r1
  301cbe:	68 e3       	mov	r14,r8
  301cc0:	78 cc       	add	#-52,r8
  301cc2:	e5 04       	mov	#4,r5
  301cc4:	64 13       	mov	r1,r4
  301cc6:	d1 2b       	mov.l	301d74 <_extract_column_names+0xd4>,r1	! 30a10c <_calloc>
  301cc8:	41 0b       	jsr	@r1
  301cca:	00 09       	nop	
  301ccc:	61 03       	mov	r0,r1
  301cce:	18 1e       	mov.l	r1,@(56,r8)
  301cd0:	61 e3       	mov	r14,r1
  301cd2:	71 cc       	add	#-52,r1
  301cd4:	e2 01       	mov	#1,r2
  301cd6:	11 2f       	mov.l	r2,@(60,r1)
  301cd8:	a0 34       	bra	301d44 <_extract_column_names+0xa4>
  301cda:	00 09       	nop	
  301cdc:	61 e3       	mov	r14,r1
  301cde:	71 cc       	add	#-52,r1
  301ce0:	51 1f       	mov.l	@(60,r1),r1
  301ce2:	d2 25       	mov.l	301d78 <_extract_column_names+0xd8>,r2	! 3fffffff
  301ce4:	31 2c       	add	r2,r1
  301ce6:	41 08       	shll2	r1
  301ce8:	62 e3       	mov	r14,r2
  301cea:	72 cc       	add	#-52,r2
  301cec:	52 2e       	mov.l	@(56,r2),r2
  301cee:	68 23       	mov	r2,r8
  301cf0:	38 1c       	add	r1,r8
  301cf2:	e4 19       	mov	#25,r4
  301cf4:	d1 21       	mov.l	301d7c <_extract_column_names+0xdc>,r1	! 30a530 <_malloc>
  301cf6:	41 0b       	jsr	@r1
  301cf8:	00 09       	nop	
  301cfa:	61 03       	mov	r0,r1
  301cfc:	28 12       	mov.l	r1,@r8
  301cfe:	61 e3       	mov	r14,r1
  301d00:	71 cc       	add	#-52,r1
  301d02:	51 1f       	mov.l	@(60,r1),r1
  301d04:	d0 1c       	mov.l	301d78 <_extract_column_names+0xd8>,r0	! 3fffffff
  301d06:	31 0c       	add	r0,r1
  301d08:	41 08       	shll2	r1
  301d0a:	62 e3       	mov	r14,r2
  301d0c:	72 cc       	add	#-52,r2
  301d0e:	52 2e       	mov.l	@(56,r2),r2
  301d10:	31 2c       	add	r2,r1
  301d12:	63 12       	mov.l	@r1,r3
  301d14:	61 e3       	mov	r14,r1
  301d16:	71 cc       	add	#-52,r1
  301d18:	51 1d       	mov.l	@(52,r1),r1
  301d1a:	51 11       	mov.l	@(4,r1),r1
  301d1c:	62 12       	mov.l	@r1,r2
  301d1e:	61 e3       	mov	r14,r1
  301d20:	71 cc       	add	#-52,r1
  301d22:	51 1f       	mov.l	@(60,r1),r1
  301d24:	41 08       	shll2	r1
  301d26:	31 2c       	add	r2,r1
  301d28:	61 12       	mov.l	@r1,r1
  301d2a:	51 16       	mov.l	@(24,r1),r1
  301d2c:	65 13       	mov	r1,r5
  301d2e:	64 33       	mov	r3,r4
  301d30:	d1 13       	mov.l	301d80 <_extract_column_names+0xe0>,r1	! 30a1b6 <_strcpy>
  301d32:	41 0b       	jsr	@r1
  301d34:	00 09       	nop	
  301d36:	61 e3       	mov	r14,r1
  301d38:	71 cc       	add	#-52,r1
  301d3a:	62 e3       	mov	r14,r2
  301d3c:	72 cc       	add	#-52,r2
  301d3e:	52 2f       	mov.l	@(60,r2),r2
  301d40:	72 01       	add	#1,r2
  301d42:	11 2f       	mov.l	r2,@(60,r1)
  301d44:	61 e3       	mov	r14,r1
  301d46:	71 cc       	add	#-52,r1
  301d48:	51 1d       	mov.l	@(52,r1),r1
  301d4a:	84 11       	mov.b	@(1,r1),r0
  301d4c:	61 03       	mov	r0,r1
  301d4e:	61 1c       	extu.b	r1,r1
  301d50:	71 ff       	add	#-1,r1
  301d52:	62 e3       	mov	r14,r2
  301d54:	72 cc       	add	#-52,r2
  301d56:	52 2f       	mov.l	@(60,r2),r2
  301d58:	32 13       	cmp/ge	r1,r2
  301d5a:	8b bf       	bf	301cdc <_extract_column_names+0x3c>
  301d5c:	61 e3       	mov	r14,r1
  301d5e:	71 cc       	add	#-52,r1
  301d60:	51 1e       	mov.l	@(56,r1),r1
  301d62:	60 13       	mov	r1,r0
  301d64:	7e 0c       	add	#12,r14
  301d66:	6f e3       	mov	r14,r15
  301d68:	4f 26       	lds.l	@r15+,pr
  301d6a:	6e f6       	mov.l	@r15+,r14
  301d6c:	68 f6       	mov.l	@r15+,r8
  301d6e:	00 0b       	rts	
  301d70:	00 09       	nop	
  301d72:	00 09       	nop	
  301d74:	00 30       	.word 0x0030
  301d76:	a1 0c       	bra	301f92 <_matrix_into_tableux+0x92>
  301d78:	3f ff       	addv	r15,r15
  301d7a:	ff ff       	.word 0xffff
  301d7c:	00 30       	.word 0x0030
  301d7e:	a5 30       	bra	3027e2 <_process_common_keys+0x558>
  301d80:	00 30       	.word 0x0030
  301d82:	a1 b6       	bra	3020f2 <_GINT_CALL_INC_STOP_function+0xc>

00301d84 <_extract_grid>:
  301d84:	2f 86       	mov.l	r8,@-r15
  301d86:	2f e6       	mov.l	r14,@-r15
  301d88:	4f 22       	sts.l	pr,@-r15
  301d8a:	7f dc       	add	#-36,r15
  301d8c:	6e f3       	mov	r15,r14
  301d8e:	61 e3       	mov	r14,r1
  301d90:	71 e4       	add	#-28,r1
  301d92:	11 4b       	mov.l	r4,@(44,r1)
  301d94:	61 e3       	mov	r14,r1
  301d96:	71 e4       	add	#-28,r1
  301d98:	51 1b       	mov.l	@(44,r1),r1
  301d9a:	61 10       	mov.b	@r1,r1
  301d9c:	61 1c       	extu.b	r1,r1
  301d9e:	71 ff       	add	#-1,r1
  301da0:	68 e3       	mov	r14,r8
  301da2:	78 e4       	add	#-28,r8
  301da4:	e5 04       	mov	#4,r5
  301da6:	64 13       	mov	r1,r4
  301da8:	d1 53       	mov.l	301ef8 <_extract_grid+0x174>,r1	! 30a10c <_calloc>
  301daa:	41 0b       	jsr	@r1
  301dac:	00 09       	nop	
  301dae:	61 03       	mov	r0,r1
  301db0:	18 1c       	mov.l	r1,@(48,r8)
  301db2:	61 e3       	mov	r14,r1
  301db4:	71 e4       	add	#-28,r1
  301db6:	e2 00       	mov	#0,r2
  301db8:	11 2f       	mov.l	r2,@(60,r1)
  301dba:	a0 1f       	bra	301dfc <_extract_grid+0x78>
  301dbc:	00 09       	nop	
  301dbe:	61 e3       	mov	r14,r1
  301dc0:	71 e4       	add	#-28,r1
  301dc2:	51 1b       	mov.l	@(44,r1),r1
  301dc4:	84 11       	mov.b	@(1,r1),r0
  301dc6:	61 03       	mov	r0,r1
  301dc8:	61 1c       	extu.b	r1,r1
  301dca:	71 ff       	add	#-1,r1
  301dcc:	63 13       	mov	r1,r3
  301dce:	61 e3       	mov	r14,r1
  301dd0:	71 e4       	add	#-28,r1
  301dd2:	51 1f       	mov.l	@(60,r1),r1
  301dd4:	41 08       	shll2	r1
  301dd6:	62 e3       	mov	r14,r2
  301dd8:	72 e4       	add	#-28,r2
  301dda:	52 2c       	mov.l	@(48,r2),r2
  301ddc:	68 23       	mov	r2,r8
  301dde:	38 1c       	add	r1,r8
  301de0:	e5 10       	mov	#16,r5
  301de2:	64 33       	mov	r3,r4
  301de4:	d1 44       	mov.l	301ef8 <_extract_grid+0x174>,r1	! 30a10c <_calloc>
  301de6:	41 0b       	jsr	@r1
  301de8:	00 09       	nop	
  301dea:	61 03       	mov	r0,r1
  301dec:	28 12       	mov.l	r1,@r8
  301dee:	61 e3       	mov	r14,r1
  301df0:	71 e4       	add	#-28,r1
  301df2:	62 e3       	mov	r14,r2
  301df4:	72 e4       	add	#-28,r2
  301df6:	52 2f       	mov.l	@(60,r2),r2
  301df8:	72 01       	add	#1,r2
  301dfa:	11 2f       	mov.l	r2,@(60,r1)
  301dfc:	61 e3       	mov	r14,r1
  301dfe:	71 e4       	add	#-28,r1
  301e00:	51 1b       	mov.l	@(44,r1),r1
  301e02:	61 10       	mov.b	@r1,r1
  301e04:	61 1c       	extu.b	r1,r1
  301e06:	71 ff       	add	#-1,r1
  301e08:	62 e3       	mov	r14,r2
  301e0a:	72 e4       	add	#-28,r2
  301e0c:	52 2f       	mov.l	@(60,r2),r2
  301e0e:	32 13       	cmp/ge	r1,r2
  301e10:	8b d5       	bf	301dbe <_extract_grid+0x3a>
  301e12:	61 e3       	mov	r14,r1
  301e14:	71 e4       	add	#-28,r1
  301e16:	e2 00       	mov	#0,r2
  301e18:	11 2e       	mov.l	r2,@(56,r1)
  301e1a:	a0 56       	bra	301eca <_extract_grid+0x146>
  301e1c:	00 09       	nop	
  301e1e:	61 e3       	mov	r14,r1
  301e20:	71 e4       	add	#-28,r1
  301e22:	e2 00       	mov	#0,r2
  301e24:	11 2d       	mov.l	r2,@(52,r1)
  301e26:	a0 3d       	bra	301ea4 <_extract_grid+0x120>
  301e28:	00 09       	nop	
  301e2a:	61 e3       	mov	r14,r1
  301e2c:	71 e4       	add	#-28,r1
  301e2e:	51 1b       	mov.l	@(44,r1),r1
  301e30:	52 11       	mov.l	@(4,r1),r2
  301e32:	61 e3       	mov	r14,r1
  301e34:	71 e4       	add	#-28,r1
  301e36:	51 1e       	mov.l	@(56,r1),r1
  301e38:	71 01       	add	#1,r1
  301e3a:	41 08       	shll2	r1
  301e3c:	31 2c       	add	r2,r1
  301e3e:	62 12       	mov.l	@r1,r2
  301e40:	61 e3       	mov	r14,r1
  301e42:	71 e4       	add	#-28,r1
  301e44:	51 1d       	mov.l	@(52,r1),r1
  301e46:	71 01       	add	#1,r1
  301e48:	41 08       	shll2	r1
  301e4a:	31 2c       	add	r2,r1
  301e4c:	61 12       	mov.l	@r1,r1
  301e4e:	53 16       	mov.l	@(24,r1),r3
  301e50:	61 e3       	mov	r14,r1
  301e52:	71 e4       	add	#-28,r1
  301e54:	51 1e       	mov.l	@(56,r1),r1
  301e56:	41 08       	shll2	r1
  301e58:	62 e3       	mov	r14,r2
  301e5a:	72 e4       	add	#-28,r2
  301e5c:	52 2c       	mov.l	@(48,r2),r2
  301e5e:	31 2c       	add	r2,r1
  301e60:	62 12       	mov.l	@r1,r2
  301e62:	61 e3       	mov	r14,r1
  301e64:	71 e4       	add	#-28,r1
  301e66:	51 1d       	mov.l	@(52,r1),r1
  301e68:	41 08       	shll2	r1
  301e6a:	41 08       	shll2	r1
  301e6c:	68 23       	mov	r2,r8
  301e6e:	38 1c       	add	r1,r8
  301e70:	61 e3       	mov	r14,r1
  301e72:	62 13       	mov	r1,r2
  301e74:	64 33       	mov	r3,r4
  301e76:	d1 21       	mov.l	301efc <_extract_grid+0x178>,r1	! 304050 <_string_to_bigm>
  301e78:	41 0b       	jsr	@r1
  301e7a:	00 09       	nop	
  301e7c:	61 e3       	mov	r14,r1
  301e7e:	62 12       	mov.l	@r1,r2
  301e80:	28 22       	mov.l	r2,@r8
  301e82:	71 04       	add	#4,r1
  301e84:	62 12       	mov.l	@r1,r2
  301e86:	18 21       	mov.l	r2,@(4,r8)
  301e88:	71 04       	add	#4,r1
  301e8a:	62 12       	mov.l	@r1,r2
  301e8c:	18 22       	mov.l	r2,@(8,r8)
  301e8e:	71 04       	add	#4,r1
  301e90:	62 12       	mov.l	@r1,r2
  301e92:	18 23       	mov.l	r2,@(12,r8)
  301e94:	71 04       	add	#4,r1
  301e96:	61 e3       	mov	r14,r1
  301e98:	71 e4       	add	#-28,r1
  301e9a:	62 e3       	mov	r14,r2
  301e9c:	72 e4       	add	#-28,r2
  301e9e:	52 2d       	mov.l	@(52,r2),r2
  301ea0:	72 01       	add	#1,r2
  301ea2:	11 2d       	mov.l	r2,@(52,r1)
  301ea4:	61 e3       	mov	r14,r1
  301ea6:	71 e4       	add	#-28,r1
  301ea8:	51 1b       	mov.l	@(44,r1),r1
  301eaa:	84 11       	mov.b	@(1,r1),r0
  301eac:	61 03       	mov	r0,r1
  301eae:	61 1c       	extu.b	r1,r1
  301eb0:	71 ff       	add	#-1,r1
  301eb2:	62 e3       	mov	r14,r2
  301eb4:	72 e4       	add	#-28,r2
  301eb6:	52 2d       	mov.l	@(52,r2),r2
  301eb8:	32 13       	cmp/ge	r1,r2
  301eba:	8b b6       	bf	301e2a <_extract_grid+0xa6>
  301ebc:	61 e3       	mov	r14,r1
  301ebe:	71 e4       	add	#-28,r1
  301ec0:	62 e3       	mov	r14,r2
  301ec2:	72 e4       	add	#-28,r2
  301ec4:	52 2e       	mov.l	@(56,r2),r2
  301ec6:	72 01       	add	#1,r2
  301ec8:	11 2e       	mov.l	r2,@(56,r1)
  301eca:	61 e3       	mov	r14,r1
  301ecc:	71 e4       	add	#-28,r1
  301ece:	51 1b       	mov.l	@(44,r1),r1
  301ed0:	61 10       	mov.b	@r1,r1
  301ed2:	61 1c       	extu.b	r1,r1
  301ed4:	71 ff       	add	#-1,r1
  301ed6:	62 e3       	mov	r14,r2
  301ed8:	72 e4       	add	#-28,r2
  301eda:	52 2e       	mov.l	@(56,r2),r2
  301edc:	32 13       	cmp/ge	r1,r2
  301ede:	8b 9e       	bf	301e1e <_extract_grid+0x9a>
  301ee0:	61 e3       	mov	r14,r1
  301ee2:	71 e4       	add	#-28,r1
  301ee4:	51 1c       	mov.l	@(48,r1),r1
  301ee6:	60 13       	mov	r1,r0
  301ee8:	7e 24       	add	#36,r14
  301eea:	6f e3       	mov	r14,r15
  301eec:	4f 26       	lds.l	@r15+,pr
  301eee:	6e f6       	mov.l	@r15+,r14
  301ef0:	68 f6       	mov.l	@r15+,r8
  301ef2:	00 0b       	rts	
  301ef4:	00 09       	nop	
  301ef6:	00 09       	nop	
  301ef8:	00 30       	.word 0x0030
  301efa:	a1 0c       	bra	302116 <_process_cursor_movement+0x2>
  301efc:	00 30       	.word 0x0030
  301efe:	40 50       	.word 0x4050

00301f00 <_matrix_into_tableux>:
  301f00:	2f 86       	mov.l	r8,@-r15
  301f02:	2f e6       	mov.l	r14,@-r15
  301f04:	4f 22       	sts.l	pr,@-r15
  301f06:	7f d0       	add	#-48,r15
  301f08:	6e f3       	mov	r15,r14
  301f0a:	61 e3       	mov	r14,r1
  301f0c:	71 f0       	add	#-16,r1
  301f0e:	11 47       	mov.l	r4,@(28,r1)
  301f10:	61 e3       	mov	r14,r1
  301f12:	71 f0       	add	#-16,r1
  301f14:	11 56       	mov.l	r5,@(24,r1)
  301f16:	61 e3       	mov	r14,r1
  301f18:	71 f0       	add	#-16,r1
  301f1a:	11 65       	mov.l	r6,@(20,r1)
  301f1c:	61 e3       	mov	r14,r1
  301f1e:	71 f0       	add	#-16,r1
  301f20:	e2 01       	mov	#1,r2
  301f22:	11 2f       	mov.l	r2,@(60,r1)
  301f24:	a0 1e       	bra	301f64 <_matrix_into_tableux+0x64>
  301f26:	00 09       	nop	
  301f28:	61 e3       	mov	r14,r1
  301f2a:	71 f0       	add	#-16,r1
  301f2c:	51 1f       	mov.l	@(60,r1),r1
  301f2e:	d2 4b       	mov.l	30205c <_matrix_into_tableux+0x15c>,r2	! 3fffffff
  301f30:	31 2c       	add	r2,r1
  301f32:	41 08       	shll2	r1
  301f34:	62 e3       	mov	r14,r2
  301f36:	72 f0       	add	#-16,r2
  301f38:	52 26       	mov.l	@(24,r2),r2
  301f3a:	32 1c       	add	r1,r2
  301f3c:	61 e3       	mov	r14,r1
  301f3e:	71 f0       	add	#-16,r1
  301f40:	51 15       	mov.l	@(20,r1),r1
  301f42:	53 11       	mov.l	@(4,r1),r3
  301f44:	61 e3       	mov	r14,r1
  301f46:	71 f0       	add	#-16,r1
  301f48:	51 1f       	mov.l	@(60,r1),r1
  301f4a:	41 08       	shll2	r1
  301f4c:	31 3c       	add	r3,r1
  301f4e:	61 12       	mov.l	@r1,r1
  301f50:	61 12       	mov.l	@r1,r1
  301f52:	62 22       	mov.l	@r2,r2
  301f54:	11 26       	mov.l	r2,@(24,r1)
  301f56:	61 e3       	mov	r14,r1
  301f58:	71 f0       	add	#-16,r1
  301f5a:	62 e3       	mov	r14,r2
  301f5c:	72 f0       	add	#-16,r2
  301f5e:	52 2f       	mov.l	@(60,r2),r2
  301f60:	72 01       	add	#1,r2
  301f62:	11 2f       	mov.l	r2,@(60,r1)
  301f64:	61 e3       	mov	r14,r1
  301f66:	71 f0       	add	#-16,r1
  301f68:	51 17       	mov.l	@(28,r1),r1
  301f6a:	61 12       	mov.l	@r1,r1
  301f6c:	62 e3       	mov	r14,r2
  301f6e:	72 f0       	add	#-16,r2
  301f70:	52 2f       	mov.l	@(60,r2),r2
  301f72:	32 13       	cmp/ge	r1,r2
  301f74:	8b d8       	bf	301f28 <_matrix_into_tableux+0x28>
  301f76:	68 e3       	mov	r14,r8
  301f78:	78 f0       	add	#-16,r8
  301f7a:	e4 19       	mov	#25,r4
  301f7c:	d1 38       	mov.l	302060 <_matrix_into_tableux+0x160>,r1	! 30a530 <_malloc>
  301f7e:	41 0b       	jsr	@r1
  301f80:	00 09       	nop	
  301f82:	61 03       	mov	r0,r1
  301f84:	18 1c       	mov.l	r1,@(48,r8)
  301f86:	61 e3       	mov	r14,r1
  301f88:	71 f0       	add	#-16,r1
  301f8a:	e2 00       	mov	#0,r2
  301f8c:	11 2e       	mov.l	r2,@(56,r1)
  301f8e:	a0 51       	bra	302034 <_matrix_into_tableux+0x134>
  301f90:	00 09       	nop	
  301f92:	61 e3       	mov	r14,r1
  301f94:	71 f0       	add	#-16,r1
  301f96:	e2 00       	mov	#0,r2
  301f98:	11 2d       	mov.l	r2,@(52,r1)
  301f9a:	a0 3b       	bra	302014 <_matrix_into_tableux+0x114>
  301f9c:	00 09       	nop	
  301f9e:	62 e3       	mov	r14,r2
  301fa0:	72 10       	add	#16,r2
  301fa2:	67 e3       	mov	r14,r7
  301fa4:	77 f0       	add	#-16,r7
  301fa6:	63 e3       	mov	r14,r3
  301fa8:	73 f0       	add	#-16,r3
  301faa:	61 e3       	mov	r14,r1
  301fac:	71 f0       	add	#-16,r1
  301fae:	56 7d       	mov.l	@(52,r7),r6
  301fb0:	55 3e       	mov.l	@(56,r3),r5
  301fb2:	54 17       	mov.l	@(28,r1),r4
  301fb4:	d1 2b       	mov.l	302064 <_matrix_into_tableux+0x164>,r1	! 30080c <_get>
  301fb6:	41 0b       	jsr	@r1
  301fb8:	00 09       	nop	
  301fba:	61 e3       	mov	r14,r1
  301fbc:	71 10       	add	#16,r1
  301fbe:	62 e3       	mov	r14,r2
  301fc0:	72 f0       	add	#-16,r2
  301fc2:	52 2c       	mov.l	@(48,r2),r2
  301fc4:	2f 22       	mov.l	r2,@r15
  301fc6:	64 12       	mov.l	@r1,r4
  301fc8:	55 11       	mov.l	@(4,r1),r5
  301fca:	56 12       	mov.l	@(8,r1),r6
  301fcc:	57 13       	mov.l	@(12,r1),r7
  301fce:	d1 26       	mov.l	302068 <_matrix_into_tableux+0x168>,r1	! 3089d8 <_BigM_str>
  301fd0:	41 0b       	jsr	@r1
  301fd2:	00 09       	nop	
  301fd4:	63 03       	mov	r0,r3
  301fd6:	61 e3       	mov	r14,r1
  301fd8:	71 f0       	add	#-16,r1
  301fda:	51 15       	mov.l	@(20,r1),r1
  301fdc:	52 11       	mov.l	@(4,r1),r2
  301fde:	61 e3       	mov	r14,r1
  301fe0:	71 f0       	add	#-16,r1
  301fe2:	51 1e       	mov.l	@(56,r1),r1
  301fe4:	71 01       	add	#1,r1
  301fe6:	41 08       	shll2	r1
  301fe8:	31 2c       	add	r2,r1
  301fea:	62 12       	mov.l	@r1,r2
  301fec:	61 e3       	mov	r14,r1
  301fee:	71 f0       	add	#-16,r1
  301ff0:	51 1d       	mov.l	@(52,r1),r1
  301ff2:	71 01       	add	#1,r1
  301ff4:	41 08       	shll2	r1
  301ff6:	31 2c       	add	r2,r1
  301ff8:	68 12       	mov.l	@r1,r8
  301ffa:	64 33       	mov	r3,r4
  301ffc:	d1 1b       	mov.l	30206c <_matrix_into_tableux+0x16c>,r1	! 30a1cc <_strdup>
  301ffe:	41 0b       	jsr	@r1
  302000:	00 09       	nop	
  302002:	61 03       	mov	r0,r1
  302004:	18 16       	mov.l	r1,@(24,r8)
  302006:	61 e3       	mov	r14,r1
  302008:	71 f0       	add	#-16,r1
  30200a:	62 e3       	mov	r14,r2
  30200c:	72 f0       	add	#-16,r2
  30200e:	52 2d       	mov.l	@(52,r2),r2
  302010:	72 01       	add	#1,r2
  302012:	11 2d       	mov.l	r2,@(52,r1)
  302014:	61 e3       	mov	r14,r1
  302016:	71 f0       	add	#-16,r1
  302018:	51 17       	mov.l	@(28,r1),r1
  30201a:	51 11       	mov.l	@(4,r1),r1
  30201c:	62 e3       	mov	r14,r2
  30201e:	72 f0       	add	#-16,r2
  302020:	52 2d       	mov.l	@(52,r2),r2
  302022:	32 13       	cmp/ge	r1,r2
  302024:	8b bb       	bf	301f9e <_matrix_into_tableux+0x9e>
  302026:	61 e3       	mov	r14,r1
  302028:	71 f0       	add	#-16,r1
  30202a:	62 e3       	mov	r14,r2
  30202c:	72 f0       	add	#-16,r2
  30202e:	52 2e       	mov.l	@(56,r2),r2
  302030:	72 01       	add	#1,r2
  302032:	11 2e       	mov.l	r2,@(56,r1)
  302034:	61 e3       	mov	r14,r1
  302036:	71 f0       	add	#-16,r1
  302038:	51 17       	mov.l	@(28,r1),r1
  30203a:	61 12       	mov.l	@r1,r1
  30203c:	62 e3       	mov	r14,r2
  30203e:	72 f0       	add	#-16,r2
  302040:	52 2e       	mov.l	@(56,r2),r2
  302042:	32 13       	cmp/ge	r1,r2
  302044:	8b a5       	bf	301f92 <_matrix_into_tableux+0x92>
  302046:	61 e3       	mov	r14,r1
  302048:	71 f0       	add	#-16,r1
  30204a:	51 15       	mov.l	@(20,r1),r1
  30204c:	60 13       	mov	r1,r0
  30204e:	7e 30       	add	#48,r14
  302050:	6f e3       	mov	r14,r15
  302052:	4f 26       	lds.l	@r15+,pr
  302054:	6e f6       	mov.l	@r15+,r14
  302056:	68 f6       	mov.l	@r15+,r8
  302058:	00 0b       	rts	
  30205a:	00 09       	nop	
  30205c:	3f ff       	addv	r15,r15
  30205e:	ff ff       	.word 0xffff
  302060:	00 30       	.word 0x0030
  302062:	a5 30       	bra	302ac6 <_process_key_construction_stage+0x272>
  302064:	00 30       	.word 0x0030
  302066:	08 0c       	mov.b	@(r0,r0),r8
  302068:	00 30       	.word 0x0030
  30206a:	89 d8       	bt	30201e <_matrix_into_tableux+0x11e>
  30206c:	00 30       	.word 0x0030
  30206e:	a1 cc       	bra	30240a <_process_common_keys+0x180>

00302070 <_GINT_CALL_SET_function>:
  302070:	2f e6       	mov.l	r14,@-r15
  302072:	7f fc       	add	#-4,r15
  302074:	6e f3       	mov	r15,r14
  302076:	61 e3       	mov	r14,r1
  302078:	71 c4       	add	#-60,r1
  30207a:	11 4f       	mov.l	r4,@(60,r1)
  30207c:	61 e3       	mov	r14,r1
  30207e:	71 c4       	add	#-60,r1
  302080:	51 1f       	mov.l	@(60,r1),r1
  302082:	e2 01       	mov	#1,r2
  302084:	21 22       	mov.l	r2,@r1
  302086:	e1 00       	mov	#0,r1
  302088:	60 13       	mov	r1,r0
  30208a:	7e 04       	add	#4,r14
  30208c:	6f e3       	mov	r14,r15
  30208e:	6e f6       	mov.l	@r15+,r14
  302090:	00 0b       	rts	
  302092:	00 09       	nop	

00302094 <_GINT_CALL_INC_function>:
  302094:	2f e6       	mov.l	r14,@-r15
  302096:	7f fc       	add	#-4,r15
  302098:	6e f3       	mov	r15,r14
  30209a:	61 e3       	mov	r14,r1
  30209c:	71 c4       	add	#-60,r1
  30209e:	11 4f       	mov.l	r4,@(60,r1)
  3020a0:	61 e3       	mov	r14,r1
  3020a2:	71 c4       	add	#-60,r1
  3020a4:	51 1f       	mov.l	@(60,r1),r1
  3020a6:	61 12       	mov.l	@r1,r1
  3020a8:	62 13       	mov	r1,r2
  3020aa:	72 01       	add	#1,r2
  3020ac:	61 e3       	mov	r14,r1
  3020ae:	71 c4       	add	#-60,r1
  3020b0:	51 1f       	mov.l	@(60,r1),r1
  3020b2:	21 22       	mov.l	r2,@r1
  3020b4:	e1 00       	mov	#0,r1
  3020b6:	60 13       	mov	r1,r0
  3020b8:	7e 04       	add	#4,r14
  3020ba:	6f e3       	mov	r14,r15
  3020bc:	6e f6       	mov.l	@r15+,r14
  3020be:	00 0b       	rts	
  3020c0:	00 09       	nop	

003020c2 <_GINT_CALL_SET_STOP_function>:
  3020c2:	2f e6       	mov.l	r14,@-r15
  3020c4:	7f fc       	add	#-4,r15
  3020c6:	6e f3       	mov	r15,r14
  3020c8:	61 e3       	mov	r14,r1
  3020ca:	71 c4       	add	#-60,r1
  3020cc:	11 4f       	mov.l	r4,@(60,r1)
  3020ce:	61 e3       	mov	r14,r1
  3020d0:	71 c4       	add	#-60,r1
  3020d2:	51 1f       	mov.l	@(60,r1),r1
  3020d4:	e2 01       	mov	#1,r2
  3020d6:	21 22       	mov.l	r2,@r1
  3020d8:	e1 01       	mov	#1,r1
  3020da:	60 13       	mov	r1,r0
  3020dc:	7e 04       	add	#4,r14
  3020de:	6f e3       	mov	r14,r15
  3020e0:	6e f6       	mov.l	@r15+,r14
  3020e2:	00 0b       	rts	
  3020e4:	00 09       	nop	

003020e6 <_GINT_CALL_INC_STOP_function>:
  3020e6:	2f e6       	mov.l	r14,@-r15
  3020e8:	7f fc       	add	#-4,r15
  3020ea:	6e f3       	mov	r15,r14
  3020ec:	61 e3       	mov	r14,r1
  3020ee:	71 c4       	add	#-60,r1
  3020f0:	11 4f       	mov.l	r4,@(60,r1)
  3020f2:	61 e3       	mov	r14,r1
  3020f4:	71 c4       	add	#-60,r1
  3020f6:	51 1f       	mov.l	@(60,r1),r1
  3020f8:	61 12       	mov.l	@r1,r1
  3020fa:	62 13       	mov	r1,r2
  3020fc:	72 01       	add	#1,r2
  3020fe:	61 e3       	mov	r14,r1
  302100:	71 c4       	add	#-60,r1
  302102:	51 1f       	mov.l	@(60,r1),r1
  302104:	21 22       	mov.l	r2,@r1
  302106:	e1 01       	mov	#1,r1
  302108:	60 13       	mov	r1,r0
  30210a:	7e 04       	add	#4,r14
  30210c:	6f e3       	mov	r14,r15
  30210e:	6e f6       	mov.l	@r15+,r14
  302110:	00 0b       	rts	
  302112:	00 09       	nop	

00302114 <_process_cursor_movement>:
  302114:	2f e6       	mov.l	r14,@-r15
  302116:	7f f0       	add	#-16,r15
  302118:	6e f3       	mov	r15,r14
  30211a:	61 e3       	mov	r14,r1
  30211c:	71 d0       	add	#-48,r1
  30211e:	11 4f       	mov.l	r4,@(60,r1)
  302120:	61 e3       	mov	r14,r1
  302122:	71 d0       	add	#-48,r1
  302124:	11 5e       	mov.l	r5,@(56,r1)
  302126:	61 e3       	mov	r14,r1
  302128:	71 d0       	add	#-48,r1
  30212a:	11 6d       	mov.l	r6,@(52,r1)
  30212c:	61 e3       	mov	r14,r1
  30212e:	71 d0       	add	#-48,r1
  302130:	11 7c       	mov.l	r7,@(48,r1)
  302132:	61 e3       	mov	r14,r1
  302134:	71 d0       	add	#-48,r1
  302136:	71 30       	add	#48,r1
  302138:	84 1f       	mov.b	@(15,r1),r0
  30213a:	61 03       	mov	r0,r1
  30213c:	61 1c       	extu.b	r1,r1
  30213e:	67 13       	mov	r1,r7
  302140:	e2 75       	mov	#117,r2
  302142:	e1 11       	mov	#17,r1
  302144:	63 23       	mov	r2,r3
  302146:	62 13       	mov	r1,r2
  302148:	61 73       	mov	r7,r1
  30214a:	31 38       	sub	r3,r1
  30214c:	31 26       	cmp/hi	r2,r1
  30214e:	8b 01       	bf	302154 <_process_cursor_movement+0x40>
  302150:	a0 89       	bra	302266 <_process_cursor_movement+0x152>
  302152:	00 09       	nop	
  302154:	c7 02       	mova	302160 <_process_cursor_movement+0x4c>,r0
  302156:	41 08       	shll2	r1
  302158:	01 1e       	mov.l	@(r0,r1),r1
  30215a:	01 23       	braf	r1
  30215c:	00 09       	nop	
  30215e:	00 09       	nop	
  302160:	00 00       	.word 0x0000
  302162:	00 72       	stc	re,r0
  302164:	00 00       	.word 0x0000
  302166:	00 d0       	.word 0x00d0
  302168:	00 00       	.word 0x0000
  30216a:	01 08       	.word 0x0108
  30216c:	00 00       	.word 0x0000
  30216e:	01 08       	.word 0x0108
  302170:	00 00       	.word 0x0000
  302172:	01 08       	.word 0x0108
  302174:	00 00       	.word 0x0000
  302176:	01 08       	.word 0x0108
  302178:	00 00       	.word 0x0000
  30217a:	01 08       	.word 0x0108
  30217c:	00 00       	.word 0x0000
  30217e:	01 08       	.word 0x0108
  302180:	00 00       	.word 0x0000
  302182:	01 08       	.word 0x0108
  302184:	00 00       	.word 0x0000
  302186:	01 08       	.word 0x0108
  302188:	00 00       	.word 0x0000
  30218a:	01 08       	.word 0x0108
  30218c:	00 00       	.word 0x0000
  30218e:	01 08       	.word 0x0108
  302190:	00 00       	.word 0x0000
  302192:	01 08       	.word 0x0108
  302194:	00 00       	.word 0x0000
  302196:	01 08       	.word 0x0108
  302198:	00 00       	.word 0x0000
  30219a:	01 08       	.word 0x0108
  30219c:	00 00       	.word 0x0000
  30219e:	01 08       	.word 0x0108
  3021a0:	00 00       	.word 0x0000
  3021a2:	00 a8       	.word 0x00a8
  3021a4:	00 00       	.word 0x0000
  3021a6:	00 4a       	.word 0x004a
  3021a8:	61 e3       	mov	r14,r1
  3021aa:	71 d0       	add	#-48,r1
  3021ac:	51 1d       	mov.l	@(52,r1),r1
  3021ae:	61 10       	mov.b	@r1,r1
  3021b0:	61 1c       	extu.b	r1,r1
  3021b2:	21 18       	tst	r1,r1
  3021b4:	89 0a       	bt	3021cc <_process_cursor_movement+0xb8>
  3021b6:	61 e3       	mov	r14,r1
  3021b8:	71 d0       	add	#-48,r1
  3021ba:	51 1d       	mov.l	@(52,r1),r1
  3021bc:	61 10       	mov.b	@r1,r1
  3021be:	61 1c       	extu.b	r1,r1
  3021c0:	71 ff       	add	#-1,r1
  3021c2:	62 1c       	extu.b	r1,r2
  3021c4:	61 e3       	mov	r14,r1
  3021c6:	71 d0       	add	#-48,r1
  3021c8:	51 1d       	mov.l	@(52,r1),r1
  3021ca:	21 20       	mov.b	r2,@r1
  3021cc:	a0 4e       	bra	30226c <_process_cursor_movement+0x158>
  3021ce:	00 09       	nop	
  3021d0:	61 e3       	mov	r14,r1
  3021d2:	71 d0       	add	#-48,r1
  3021d4:	51 1d       	mov.l	@(52,r1),r1
  3021d6:	61 10       	mov.b	@r1,r1
  3021d8:	61 1c       	extu.b	r1,r1
  3021da:	62 13       	mov	r1,r2
  3021dc:	61 e3       	mov	r14,r1
  3021de:	71 d0       	add	#-48,r1
  3021e0:	51 1c       	mov.l	@(48,r1),r1
  3021e2:	61 10       	mov.b	@r1,r1
  3021e4:	61 1c       	extu.b	r1,r1
  3021e6:	71 ff       	add	#-1,r1
  3021e8:	32 13       	cmp/ge	r1,r2
  3021ea:	89 0a       	bt	302202 <_process_cursor_movement+0xee>
  3021ec:	61 e3       	mov	r14,r1
  3021ee:	71 d0       	add	#-48,r1
  3021f0:	51 1d       	mov.l	@(52,r1),r1
  3021f2:	61 10       	mov.b	@r1,r1
  3021f4:	61 1c       	extu.b	r1,r1
  3021f6:	71 01       	add	#1,r1
  3021f8:	62 1c       	extu.b	r1,r2
  3021fa:	61 e3       	mov	r14,r1
  3021fc:	71 d0       	add	#-48,r1
  3021fe:	51 1d       	mov.l	@(52,r1),r1
  302200:	21 20       	mov.b	r2,@r1
  302202:	a0 36       	bra	302272 <_process_cursor_movement+0x15e>
  302204:	00 09       	nop	
  302206:	61 e3       	mov	r14,r1
  302208:	71 d0       	add	#-48,r1
  30220a:	51 1e       	mov.l	@(56,r1),r1
  30220c:	61 10       	mov.b	@r1,r1
  30220e:	61 1c       	extu.b	r1,r1
  302210:	21 18       	tst	r1,r1
  302212:	89 31       	bt	302278 <_process_cursor_movement+0x164>
  302214:	61 e3       	mov	r14,r1
  302216:	71 d0       	add	#-48,r1
  302218:	51 1e       	mov.l	@(56,r1),r1
  30221a:	61 10       	mov.b	@r1,r1
  30221c:	61 1c       	extu.b	r1,r1
  30221e:	71 ff       	add	#-1,r1
  302220:	62 1c       	extu.b	r1,r2
  302222:	61 e3       	mov	r14,r1
  302224:	71 d0       	add	#-48,r1
  302226:	51 1e       	mov.l	@(56,r1),r1
  302228:	21 20       	mov.b	r2,@r1
  30222a:	a0 25       	bra	302278 <_process_cursor_movement+0x164>
  30222c:	00 09       	nop	
  30222e:	61 e3       	mov	r14,r1
  302230:	71 d0       	add	#-48,r1
  302232:	51 1e       	mov.l	@(56,r1),r1
  302234:	61 10       	mov.b	@r1,r1
  302236:	61 1c       	extu.b	r1,r1
  302238:	62 13       	mov	r1,r2
  30223a:	61 e3       	mov	r14,r1
  30223c:	71 d0       	add	#-48,r1
  30223e:	51 1c       	mov.l	@(48,r1),r1
  302240:	84 11       	mov.b	@(1,r1),r0
  302242:	61 03       	mov	r0,r1
  302244:	61 1c       	extu.b	r1,r1
  302246:	71 ff       	add	#-1,r1
  302248:	32 13       	cmp/ge	r1,r2
  30224a:	89 18       	bt	30227e <_process_cursor_movement+0x16a>
  30224c:	61 e3       	mov	r14,r1
  30224e:	71 d0       	add	#-48,r1
  302250:	51 1e       	mov.l	@(56,r1),r1
  302252:	61 10       	mov.b	@r1,r1
  302254:	61 1c       	extu.b	r1,r1
  302256:	71 01       	add	#1,r1
  302258:	62 1c       	extu.b	r1,r2
  30225a:	61 e3       	mov	r14,r1
  30225c:	71 d0       	add	#-48,r1
  30225e:	51 1e       	mov.l	@(56,r1),r1
  302260:	21 20       	mov.b	r2,@r1
  302262:	a0 0c       	bra	30227e <_process_cursor_movement+0x16a>
  302264:	00 09       	nop	
  302266:	00 09       	nop	
  302268:	a0 0a       	bra	302280 <_process_cursor_movement+0x16c>
  30226a:	00 09       	nop	
  30226c:	00 09       	nop	
  30226e:	a0 07       	bra	302280 <_process_cursor_movement+0x16c>
  302270:	00 09       	nop	
  302272:	00 09       	nop	
  302274:	a0 04       	bra	302280 <_process_cursor_movement+0x16c>
  302276:	00 09       	nop	
  302278:	00 09       	nop	
  30227a:	a0 01       	bra	302280 <_process_cursor_movement+0x16c>
  30227c:	00 09       	nop	
  30227e:	00 09       	nop	
  302280:	7e 10       	add	#16,r14
  302282:	6f e3       	mov	r14,r15
  302284:	6e f6       	mov.l	@r15+,r14
  302286:	00 0b       	rts	
  302288:	00 09       	nop	

0030228a <_process_common_keys>:
  30228a:	2f 86       	mov.l	r8,@-r15
  30228c:	2f e6       	mov.l	r14,@-r15
  30228e:	4f 22       	sts.l	pr,@-r15
  302290:	7f dc       	add	#-36,r15
  302292:	6e f3       	mov	r15,r14
  302294:	61 e3       	mov	r14,r1
  302296:	71 e4       	add	#-28,r1
  302298:	11 4a       	mov.l	r4,@(40,r1)
  30229a:	61 e3       	mov	r14,r1
  30229c:	71 e4       	add	#-28,r1
  30229e:	11 59       	mov.l	r5,@(36,r1)
  3022a0:	61 e3       	mov	r14,r1
  3022a2:	71 e4       	add	#-28,r1
  3022a4:	11 68       	mov.l	r6,@(32,r1)
  3022a6:	61 e3       	mov	r14,r1
  3022a8:	71 e4       	add	#-28,r1
  3022aa:	11 77       	mov.l	r7,@(28,r1)
  3022ac:	61 e3       	mov	r14,r1
  3022ae:	71 e4       	add	#-28,r1
  3022b0:	71 20       	add	#32,r1
  3022b2:	84 1b       	mov.b	@(11,r1),r0
  3022b4:	61 03       	mov	r0,r1
  3022b6:	62 1c       	extu.b	r1,r2
  3022b8:	e1 44       	mov	#68,r1
  3022ba:	32 10       	cmp/eq	r1,r2
  3022bc:	8b 3f       	bf	30233e <_process_common_keys+0xb4>
  3022be:	61 e3       	mov	r14,r1
  3022c0:	71 e4       	add	#-28,r1
  3022c2:	51 17       	mov.l	@(28,r1),r1
  3022c4:	52 11       	mov.l	@(4,r1),r2
  3022c6:	61 e3       	mov	r14,r1
  3022c8:	71 e4       	add	#-28,r1
  3022ca:	51 18       	mov.l	@(32,r1),r1
  3022cc:	61 10       	mov.b	@r1,r1
  3022ce:	61 1c       	extu.b	r1,r1
  3022d0:	41 08       	shll2	r1
  3022d2:	31 2c       	add	r2,r1
  3022d4:	62 12       	mov.l	@r1,r2
  3022d6:	61 e3       	mov	r14,r1
  3022d8:	71 e4       	add	#-28,r1
  3022da:	51 19       	mov.l	@(36,r1),r1
  3022dc:	61 10       	mov.b	@r1,r1
  3022de:	61 1c       	extu.b	r1,r1
  3022e0:	41 08       	shll2	r1
  3022e2:	31 2c       	add	r2,r1
  3022e4:	61 12       	mov.l	@r1,r1
  3022e6:	51 16       	mov.l	@(24,r1),r1
  3022e8:	68 e3       	mov	r14,r8
  3022ea:	78 e4       	add	#-28,r8
  3022ec:	64 13       	mov	r1,r4
  3022ee:	d1 2a       	mov.l	302398 <_process_common_keys+0x10e>,r1	! 30a4f6 <_strlen>
  3022f0:	41 0b       	jsr	@r1
  3022f2:	00 09       	nop	
  3022f4:	61 03       	mov	r0,r1
  3022f6:	18 1c       	mov.l	r1,@(48,r8)
  3022f8:	61 e3       	mov	r14,r1
  3022fa:	71 e4       	add	#-28,r1
  3022fc:	51 1c       	mov.l	@(48,r1),r1
  3022fe:	21 18       	tst	r1,r1
  302300:	89 1b       	bt	30233a <_process_common_keys+0xb0>
  302302:	61 e3       	mov	r14,r1
  302304:	71 e4       	add	#-28,r1
  302306:	51 17       	mov.l	@(28,r1),r1
  302308:	52 11       	mov.l	@(4,r1),r2
  30230a:	61 e3       	mov	r14,r1
  30230c:	71 e4       	add	#-28,r1
  30230e:	51 18       	mov.l	@(32,r1),r1
  302310:	61 10       	mov.b	@r1,r1
  302312:	61 1c       	extu.b	r1,r1
  302314:	41 08       	shll2	r1
  302316:	31 2c       	add	r2,r1
  302318:	62 12       	mov.l	@r1,r2
  30231a:	61 e3       	mov	r14,r1
  30231c:	71 e4       	add	#-28,r1
  30231e:	51 19       	mov.l	@(36,r1),r1
  302320:	61 10       	mov.b	@r1,r1
  302322:	61 1c       	extu.b	r1,r1
  302324:	41 08       	shll2	r1
  302326:	31 2c       	add	r2,r1
  302328:	61 12       	mov.l	@r1,r1
  30232a:	52 16       	mov.l	@(24,r1),r2
  30232c:	61 e3       	mov	r14,r1
  30232e:	71 e4       	add	#-28,r1
  302330:	51 1c       	mov.l	@(48,r1),r1
  302332:	71 ff       	add	#-1,r1
  302334:	31 2c       	add	r2,r1
  302336:	e2 00       	mov	#0,r2
  302338:	21 20       	mov.b	r2,@r1
  30233a:	a2 75       	bra	302828 <_process_common_keys+0x59e>
  30233c:	00 09       	nop	
  30233e:	61 e3       	mov	r14,r1
  302340:	71 e4       	add	#-28,r1
  302342:	51 18       	mov.l	@(32,r1),r1
  302344:	61 10       	mov.b	@r1,r1
  302346:	61 1c       	extu.b	r1,r1
  302348:	62 13       	mov	r1,r2
  30234a:	61 e3       	mov	r14,r1
  30234c:	71 e4       	add	#-28,r1
  30234e:	51 17       	mov.l	@(28,r1),r1
  302350:	61 10       	mov.b	@r1,r1
  302352:	61 1c       	extu.b	r1,r1
  302354:	71 ff       	add	#-1,r1
  302356:	32 10       	cmp/eq	r1,r2
  302358:	8b 06       	bf	302368 <_process_common_keys+0xde>
  30235a:	61 e3       	mov	r14,r1
  30235c:	71 e4       	add	#-28,r1
  30235e:	51 19       	mov.l	@(36,r1),r1
  302360:	61 10       	mov.b	@r1,r1
  302362:	61 1c       	extu.b	r1,r1
  302364:	21 18       	tst	r1,r1
  302366:	8b 01       	bf	30236c <_process_common_keys+0xe2>
  302368:	a1 74       	bra	302654 <_process_common_keys+0x3ca>
  30236a:	00 09       	nop	
  30236c:	61 e3       	mov	r14,r1
  30236e:	71 e4       	add	#-28,r1
  302370:	71 20       	add	#32,r1
  302372:	84 1b       	mov.b	@(11,r1),r0
  302374:	61 03       	mov	r0,r1
  302376:	61 1c       	extu.b	r1,r1
  302378:	67 13       	mov	r1,r7
  30237a:	e2 11       	mov	#17,r2
  30237c:	e1 40       	mov	#64,r1
  30237e:	63 23       	mov	r2,r3
  302380:	62 13       	mov	r1,r2
  302382:	61 73       	mov	r7,r1
  302384:	31 38       	sub	r3,r1
  302386:	31 26       	cmp/hi	r2,r1
  302388:	8b 01       	bf	30238e <_process_common_keys+0x104>
  30238a:	a0 f9       	bra	302580 <_process_common_keys+0x2f6>
  30238c:	00 09       	nop	
  30238e:	c7 03       	mova	30239c <_process_common_keys+0x112>,r0
  302390:	41 08       	shll2	r1
  302392:	01 1e       	mov.l	@(r0,r1),r1
  302394:	01 23       	braf	r1
  302396:	00 09       	nop	
  302398:	00 30       	.word 0x0030
  30239a:	a4 f6       	bra	302d8a <_process_key_rowcol_stage+0x1fa>
  30239c:	00 00       	.word 0x0000
  30239e:	01 40       	.word 0x0140
  3023a0:	00 00       	.word 0x0000
  3023a2:	01 e8       	.word 0x01e8
  3023a4:	00 00       	.word 0x0000
  3023a6:	01 e8       	.word 0x01e8
  3023a8:	00 00       	.word 0x0000
  3023aa:	01 e8       	.word 0x01e8
  3023ac:	00 00       	.word 0x0000
  3023ae:	01 e8       	.word 0x01e8
  3023b0:	00 00       	.word 0x0000
  3023b2:	01 e8       	.word 0x01e8
  3023b4:	00 00       	.word 0x0000
  3023b6:	01 e8       	.word 0x01e8
  3023b8:	00 00       	.word 0x0000
  3023ba:	01 e8       	.word 0x01e8
  3023bc:	00 00       	.word 0x0000
  3023be:	01 e8       	.word 0x01e8
  3023c0:	00 00       	.word 0x0000
  3023c2:	01 e8       	.word 0x01e8
  3023c4:	00 00       	.word 0x0000
  3023c6:	01 e8       	.word 0x01e8
  3023c8:	00 00       	.word 0x0000
  3023ca:	01 e8       	.word 0x01e8
  3023cc:	00 00       	.word 0x0000
  3023ce:	01 e8       	.word 0x01e8
  3023d0:	00 00       	.word 0x0000
  3023d2:	01 e8       	.word 0x01e8
  3023d4:	00 00       	.word 0x0000
  3023d6:	01 e8       	.word 0x01e8
  3023d8:	00 00       	.word 0x0000
  3023da:	01 e8       	.word 0x01e8
  3023dc:	00 00       	.word 0x0000
  3023de:	01 4e       	mov.l	@(r0,r4),r1
  3023e0:	00 00       	.word 0x0000
  3023e2:	01 5c       	mov.b	@(r0,r5),r1
  3023e4:	00 00       	.word 0x0000
  3023e6:	01 6a       	sts	dsr,r1
  3023e8:	00 00       	.word 0x0000
  3023ea:	01 16       	mov.l	r1,@(r0,r1)
  3023ec:	00 00       	.word 0x0000
  3023ee:	01 08       	.word 0x0108
  3023f0:	00 00       	.word 0x0000
  3023f2:	01 e8       	.word 0x01e8
  3023f4:	00 00       	.word 0x0000
  3023f6:	01 e8       	.word 0x01e8
  3023f8:	00 00       	.word 0x0000
  3023fa:	01 e8       	.word 0x01e8
  3023fc:	00 00       	.word 0x0000
  3023fe:	01 e8       	.word 0x01e8
  302400:	00 00       	.word 0x0000
  302402:	01 e8       	.word 0x01e8
  302404:	00 00       	.word 0x0000
  302406:	01 e8       	.word 0x01e8
  302408:	00 00       	.word 0x0000
  30240a:	01 e8       	.word 0x01e8
  30240c:	00 00       	.word 0x0000
  30240e:	01 e8       	.word 0x01e8
  302410:	00 00       	.word 0x0000
  302412:	01 e8       	.word 0x01e8
  302414:	00 00       	.word 0x0000
  302416:	01 e8       	.word 0x01e8
  302418:	00 00       	.word 0x0000
  30241a:	01 e8       	.word 0x01e8
  30241c:	00 00       	.word 0x0000
  30241e:	01 78       	.word 0x0178
  302420:	00 00       	.word 0x0000
  302422:	01 86       	mov.l	r8,@(r0,r1)
  302424:	00 00       	.word 0x0000
  302426:	01 94       	mov.b	r9,@(r0,r1)
  302428:	00 00       	.word 0x0000
  30242a:	01 e8       	.word 0x01e8
  30242c:	00 00       	.word 0x0000
  30242e:	01 24       	mov.b	r2,@(r0,r1)
  302430:	00 00       	.word 0x0000
  302432:	01 e8       	.word 0x01e8
  302434:	00 00       	.word 0x0000
  302436:	01 e8       	.word 0x01e8
  302438:	00 00       	.word 0x0000
  30243a:	01 e8       	.word 0x01e8
  30243c:	00 00       	.word 0x0000
  30243e:	01 e8       	.word 0x01e8
  302440:	00 00       	.word 0x0000
  302442:	01 e8       	.word 0x01e8
  302444:	00 00       	.word 0x0000
  302446:	01 e8       	.word 0x01e8
  302448:	00 00       	.word 0x0000
  30244a:	01 e8       	.word 0x01e8
  30244c:	00 00       	.word 0x0000
  30244e:	01 e8       	.word 0x01e8
  302450:	00 00       	.word 0x0000
  302452:	01 e8       	.word 0x01e8
  302454:	00 00       	.word 0x0000
  302456:	01 e8       	.word 0x01e8
  302458:	00 00       	.word 0x0000
  30245a:	01 e8       	.word 0x01e8
  30245c:	00 00       	.word 0x0000
  30245e:	01 a2       	stc	r2_bank,r1
  302460:	00 00       	.word 0x0000
  302462:	01 cc       	mov.b	@(r0,r12),r1
  302464:	00 00       	.word 0x0000
  302466:	01 da       	.word 0x01da
  302468:	00 00       	.word 0x0000
  30246a:	01 e8       	.word 0x01e8
  30246c:	00 00       	.word 0x0000
  30246e:	01 e8       	.word 0x01e8
  302470:	00 00       	.word 0x0000
  302472:	01 e8       	.word 0x01e8
  302474:	00 00       	.word 0x0000
  302476:	01 e8       	.word 0x01e8
  302478:	00 00       	.word 0x0000
  30247a:	01 e8       	.word 0x01e8
  30247c:	00 00       	.word 0x0000
  30247e:	01 e8       	.word 0x01e8
  302480:	00 00       	.word 0x0000
  302482:	01 e8       	.word 0x01e8
  302484:	00 00       	.word 0x0000
  302486:	01 e8       	.word 0x01e8
  302488:	00 00       	.word 0x0000
  30248a:	01 e8       	.word 0x01e8
  30248c:	00 00       	.word 0x0000
  30248e:	01 e8       	.word 0x01e8
  302490:	00 00       	.word 0x0000
  302492:	01 e8       	.word 0x01e8
  302494:	00 00       	.word 0x0000
  302496:	01 e8       	.word 0x01e8
  302498:	00 00       	.word 0x0000
  30249a:	01 e8       	.word 0x01e8
  30249c:	00 00       	.word 0x0000
  30249e:	01 32       	stc	ssr,r1
  3024a0:	61 e3       	mov	r14,r1
  3024a2:	71 04       	add	#4,r1
  3024a4:	e2 2d       	mov	#45,r2
  3024a6:	60 23       	mov	r2,r0
  3024a8:	80 1f       	mov.b	r0,@(15,r1)
  3024aa:	a0 6f       	bra	30258c <_process_common_keys+0x302>
  3024ac:	00 09       	nop	
  3024ae:	61 e3       	mov	r14,r1
  3024b0:	71 04       	add	#4,r1
  3024b2:	e2 2b       	mov	#43,r2
  3024b4:	60 23       	mov	r2,r0
  3024b6:	80 1f       	mov.b	r0,@(15,r1)
  3024b8:	a0 68       	bra	30258c <_process_common_keys+0x302>
  3024ba:	00 09       	nop	
  3024bc:	61 e3       	mov	r14,r1
  3024be:	71 04       	add	#4,r1
  3024c0:	e2 2f       	mov	#47,r2
  3024c2:	60 23       	mov	r2,r0
  3024c4:	80 1f       	mov.b	r0,@(15,r1)
  3024c6:	a0 61       	bra	30258c <_process_common_keys+0x302>
  3024c8:	00 09       	nop	
  3024ca:	61 e3       	mov	r14,r1
  3024cc:	71 04       	add	#4,r1
  3024ce:	e2 2f       	mov	#47,r2
  3024d0:	60 23       	mov	r2,r0
  3024d2:	80 1f       	mov.b	r0,@(15,r1)
  3024d4:	a0 5a       	bra	30258c <_process_common_keys+0x302>
  3024d6:	00 09       	nop	
  3024d8:	61 e3       	mov	r14,r1
  3024da:	71 04       	add	#4,r1
  3024dc:	e2 30       	mov	#48,r2
  3024de:	60 23       	mov	r2,r0
  3024e0:	80 1f       	mov.b	r0,@(15,r1)
  3024e2:	a0 53       	bra	30258c <_process_common_keys+0x302>
  3024e4:	00 09       	nop	
  3024e6:	61 e3       	mov	r14,r1
  3024e8:	71 04       	add	#4,r1
  3024ea:	e2 31       	mov	#49,r2
  3024ec:	60 23       	mov	r2,r0
  3024ee:	80 1f       	mov.b	r0,@(15,r1)
  3024f0:	a0 4c       	bra	30258c <_process_common_keys+0x302>
  3024f2:	00 09       	nop	
  3024f4:	61 e3       	mov	r14,r1
  3024f6:	71 04       	add	#4,r1
  3024f8:	e2 32       	mov	#50,r2
  3024fa:	60 23       	mov	r2,r0
  3024fc:	80 1f       	mov.b	r0,@(15,r1)
  3024fe:	a0 45       	bra	30258c <_process_common_keys+0x302>
  302500:	00 09       	nop	
  302502:	61 e3       	mov	r14,r1
  302504:	71 04       	add	#4,r1
  302506:	e2 33       	mov	#51,r2
  302508:	60 23       	mov	r2,r0
  30250a:	80 1f       	mov.b	r0,@(15,r1)
  30250c:	a0 3e       	bra	30258c <_process_common_keys+0x302>
  30250e:	00 09       	nop	
  302510:	61 e3       	mov	r14,r1
  302512:	71 04       	add	#4,r1
  302514:	e2 34       	mov	#52,r2
  302516:	60 23       	mov	r2,r0
  302518:	80 1f       	mov.b	r0,@(15,r1)
  30251a:	a0 37       	bra	30258c <_process_common_keys+0x302>
  30251c:	00 09       	nop	
  30251e:	61 e3       	mov	r14,r1
  302520:	71 04       	add	#4,r1
  302522:	e2 35       	mov	#53,r2
  302524:	60 23       	mov	r2,r0
  302526:	80 1f       	mov.b	r0,@(15,r1)
  302528:	a0 30       	bra	30258c <_process_common_keys+0x302>
  30252a:	00 09       	nop	
  30252c:	61 e3       	mov	r14,r1
  30252e:	71 04       	add	#4,r1
  302530:	e2 36       	mov	#54,r2
  302532:	60 23       	mov	r2,r0
  302534:	80 1f       	mov.b	r0,@(15,r1)
  302536:	a0 29       	bra	30258c <_process_common_keys+0x302>
  302538:	00 09       	nop	
  30253a:	61 e3       	mov	r14,r1
  30253c:	71 e4       	add	#-28,r1
  30253e:	52 1a       	mov.l	@(40,r1),r2
  302540:	91 81       	mov.w	302646 <_process_common_keys+0x3bc>,r1	! 400
  302542:	21 29       	and	r2,r1
  302544:	21 18       	tst	r1,r1
  302546:	89 06       	bt	302556 <_process_common_keys+0x2cc>
  302548:	61 e3       	mov	r14,r1
  30254a:	71 04       	add	#4,r1
  30254c:	e2 4d       	mov	#77,r2
  30254e:	60 23       	mov	r2,r0
  302550:	80 1f       	mov.b	r0,@(15,r1)
  302552:	a0 1b       	bra	30258c <_process_common_keys+0x302>
  302554:	00 09       	nop	
  302556:	61 e3       	mov	r14,r1
  302558:	71 04       	add	#4,r1
  30255a:	e2 37       	mov	#55,r2
  30255c:	60 23       	mov	r2,r0
  30255e:	80 1f       	mov.b	r0,@(15,r1)
  302560:	a0 14       	bra	30258c <_process_common_keys+0x302>
  302562:	00 09       	nop	
  302564:	61 e3       	mov	r14,r1
  302566:	71 04       	add	#4,r1
  302568:	e2 38       	mov	#56,r2
  30256a:	60 23       	mov	r2,r0
  30256c:	80 1f       	mov.b	r0,@(15,r1)
  30256e:	a0 0d       	bra	30258c <_process_common_keys+0x302>
  302570:	00 09       	nop	
  302572:	61 e3       	mov	r14,r1
  302574:	71 04       	add	#4,r1
  302576:	e2 39       	mov	#57,r2
  302578:	60 23       	mov	r2,r0
  30257a:	80 1f       	mov.b	r0,@(15,r1)
  30257c:	a0 06       	bra	30258c <_process_common_keys+0x302>
  30257e:	00 09       	nop	
  302580:	61 e3       	mov	r14,r1
  302582:	71 04       	add	#4,r1
  302584:	e2 4e       	mov	#78,r2
  302586:	60 23       	mov	r2,r0
  302588:	80 1f       	mov.b	r0,@(15,r1)
  30258a:	00 09       	nop	
  30258c:	61 e3       	mov	r14,r1
  30258e:	71 e4       	add	#-28,r1
  302590:	51 17       	mov.l	@(28,r1),r1
  302592:	52 11       	mov.l	@(4,r1),r2
  302594:	61 e3       	mov	r14,r1
  302596:	71 e4       	add	#-28,r1
  302598:	51 19       	mov.l	@(36,r1),r1
  30259a:	61 10       	mov.b	@r1,r1
  30259c:	61 1c       	extu.b	r1,r1
  30259e:	41 08       	shll2	r1
  3025a0:	31 2c       	add	r2,r1
  3025a2:	62 12       	mov.l	@r1,r2
  3025a4:	61 e3       	mov	r14,r1
  3025a6:	71 e4       	add	#-28,r1
  3025a8:	51 18       	mov.l	@(32,r1),r1
  3025aa:	61 10       	mov.b	@r1,r1
  3025ac:	61 1c       	extu.b	r1,r1
  3025ae:	41 08       	shll2	r1
  3025b0:	31 2c       	add	r2,r1
  3025b2:	61 12       	mov.l	@r1,r1
  3025b4:	52 16       	mov.l	@(24,r1),r2
  3025b6:	61 e3       	mov	r14,r1
  3025b8:	71 04       	add	#4,r1
  3025ba:	84 1f       	mov.b	@(15,r1),r0
  3025bc:	61 03       	mov	r0,r1
  3025be:	65 13       	mov	r1,r5
  3025c0:	64 23       	mov	r2,r4
  3025c2:	d1 21       	mov.l	302648 <_process_common_keys+0x3be>,r1	! 304140 <_validate_input>
  3025c4:	41 0b       	jsr	@r1
  3025c6:	00 09       	nop	
  3025c8:	61 03       	mov	r0,r1
  3025ca:	21 18       	tst	r1,r1
  3025cc:	89 39       	bt	302642 <_process_common_keys+0x3b8>
  3025ce:	61 e3       	mov	r14,r1
  3025d0:	71 e4       	add	#-28,r1
  3025d2:	51 17       	mov.l	@(28,r1),r1
  3025d4:	52 11       	mov.l	@(4,r1),r2
  3025d6:	61 e3       	mov	r14,r1
  3025d8:	71 e4       	add	#-28,r1
  3025da:	51 18       	mov.l	@(32,r1),r1
  3025dc:	61 10       	mov.b	@r1,r1
  3025de:	61 1c       	extu.b	r1,r1
  3025e0:	41 08       	shll2	r1
  3025e2:	31 2c       	add	r2,r1
  3025e4:	62 12       	mov.l	@r1,r2
  3025e6:	61 e3       	mov	r14,r1
  3025e8:	71 e4       	add	#-28,r1
  3025ea:	51 19       	mov.l	@(36,r1),r1
  3025ec:	61 10       	mov.b	@r1,r1
  3025ee:	61 1c       	extu.b	r1,r1
  3025f0:	41 08       	shll2	r1
  3025f2:	31 2c       	add	r2,r1
  3025f4:	61 12       	mov.l	@r1,r1
  3025f6:	51 16       	mov.l	@(24,r1),r1
  3025f8:	64 13       	mov	r1,r4
  3025fa:	d1 14       	mov.l	30264c <_process_common_keys+0x3c2>,r1	! 30a4f6 <_strlen>
  3025fc:	41 0b       	jsr	@r1
  3025fe:	00 09       	nop	
  302600:	61 03       	mov	r0,r1
  302602:	e2 13       	mov	#19,r2
  302604:	31 26       	cmp/hi	r2,r1
  302606:	89 1c       	bt	302642 <_process_common_keys+0x3b8>
  302608:	61 e3       	mov	r14,r1
  30260a:	71 e4       	add	#-28,r1
  30260c:	51 17       	mov.l	@(28,r1),r1
  30260e:	52 11       	mov.l	@(4,r1),r2
  302610:	61 e3       	mov	r14,r1
  302612:	71 e4       	add	#-28,r1
  302614:	51 18       	mov.l	@(32,r1),r1
  302616:	61 10       	mov.b	@r1,r1
  302618:	61 1c       	extu.b	r1,r1
  30261a:	41 08       	shll2	r1
  30261c:	31 2c       	add	r2,r1
  30261e:	62 12       	mov.l	@r1,r2
  302620:	61 e3       	mov	r14,r1
  302622:	71 e4       	add	#-28,r1
  302624:	51 19       	mov.l	@(36,r1),r1
  302626:	61 10       	mov.b	@r1,r1
  302628:	61 1c       	extu.b	r1,r1
  30262a:	41 08       	shll2	r1
  30262c:	31 2c       	add	r2,r1
  30262e:	61 12       	mov.l	@r1,r1
  302630:	51 16       	mov.l	@(24,r1),r1
  302632:	62 e3       	mov	r14,r2
  302634:	72 13       	add	#19,r2
  302636:	e6 01       	mov	#1,r6
  302638:	65 23       	mov	r2,r5
  30263a:	64 13       	mov	r1,r4
  30263c:	d1 04       	mov.l	302650 <_process_common_keys+0x3c6>,r1	! 30a20c <_strncat>
  30263e:	41 0b       	jsr	@r1
  302640:	00 09       	nop	
  302642:	a0 f4       	bra	30282e <_process_common_keys+0x5a4>
  302644:	00 09       	nop	
  302646:	04 00       	.word 0x0400
  302648:	00 30       	.word 0x0030
  30264a:	41 40       	.word 0x4140
  30264c:	00 30       	.word 0x0030
  30264e:	a4 f6       	bra	30303e <_process_key_rowcol_stage+0x4ae>
  302650:	00 30       	.word 0x0030
  302652:	a2 0c       	bra	302a6e <_process_key_construction_stage+0x21a>
  302654:	61 e3       	mov	r14,r1
  302656:	71 e4       	add	#-28,r1
  302658:	71 20       	add	#32,r1
  30265a:	84 1b       	mov.b	@(11,r1),r0
  30265c:	61 03       	mov	r0,r1
  30265e:	61 1c       	extu.b	r1,r1
  302660:	64 13       	mov	r1,r4
  302662:	d1 77       	mov.l	302840 <_process_common_keys+0x5b6>,r1	! 30469e <_keycode_digit>
  302664:	41 0b       	jsr	@r1
  302666:	00 09       	nop	
  302668:	61 03       	mov	r0,r1
  30266a:	41 15       	cmp/pl	r1
  30266c:	8b 4d       	bf	30270a <_process_common_keys+0x480>
  30266e:	61 e3       	mov	r14,r1
  302670:	71 e4       	add	#-28,r1
  302672:	51 17       	mov.l	@(28,r1),r1
  302674:	52 11       	mov.l	@(4,r1),r2
  302676:	61 e3       	mov	r14,r1
  302678:	71 e4       	add	#-28,r1
  30267a:	51 18       	mov.l	@(32,r1),r1
  30267c:	61 10       	mov.b	@r1,r1
  30267e:	61 1c       	extu.b	r1,r1
  302680:	41 08       	shll2	r1
  302682:	31 2c       	add	r2,r1
  302684:	62 12       	mov.l	@r1,r2
  302686:	61 e3       	mov	r14,r1
  302688:	71 e4       	add	#-28,r1
  30268a:	51 19       	mov.l	@(36,r1),r1
  30268c:	61 10       	mov.b	@r1,r1
  30268e:	61 1c       	extu.b	r1,r1
  302690:	41 08       	shll2	r1
  302692:	31 2c       	add	r2,r1
  302694:	62 12       	mov.l	@r1,r2
  302696:	61 e3       	mov	r14,r1
  302698:	71 e4       	add	#-28,r1
  30269a:	52 26       	mov.l	@(24,r2),r2
  30269c:	11 2d       	mov.l	r2,@(52,r1)
  30269e:	61 e3       	mov	r14,r1
  3026a0:	71 e4       	add	#-28,r1
  3026a2:	54 1d       	mov.l	@(52,r1),r4
  3026a4:	d1 67       	mov.l	302844 <_process_common_keys+0x5ba>,r1	! 30a4f6 <_strlen>
  3026a6:	41 0b       	jsr	@r1
  3026a8:	00 09       	nop	
  3026aa:	61 03       	mov	r0,r1
  3026ac:	e2 13       	mov	#19,r2
  3026ae:	31 26       	cmp/hi	r2,r1
  3026b0:	89 29       	bt	302706 <_process_common_keys+0x47c>
  3026b2:	61 e3       	mov	r14,r1
  3026b4:	71 e4       	add	#-28,r1
  3026b6:	51 17       	mov.l	@(28,r1),r1
  3026b8:	52 11       	mov.l	@(4,r1),r2
  3026ba:	61 e3       	mov	r14,r1
  3026bc:	71 e4       	add	#-28,r1
  3026be:	51 18       	mov.l	@(32,r1),r1
  3026c0:	61 10       	mov.b	@r1,r1
  3026c2:	61 1c       	extu.b	r1,r1
  3026c4:	41 08       	shll2	r1
  3026c6:	31 2c       	add	r2,r1
  3026c8:	62 12       	mov.l	@r1,r2
  3026ca:	61 e3       	mov	r14,r1
  3026cc:	71 e4       	add	#-28,r1
  3026ce:	51 19       	mov.l	@(36,r1),r1
  3026d0:	61 10       	mov.b	@r1,r1
  3026d2:	61 1c       	extu.b	r1,r1
  3026d4:	41 08       	shll2	r1
  3026d6:	31 2c       	add	r2,r1
  3026d8:	61 12       	mov.l	@r1,r1
  3026da:	58 16       	mov.l	@(24,r1),r8
  3026dc:	61 e3       	mov	r14,r1
  3026de:	71 e4       	add	#-28,r1
  3026e0:	71 20       	add	#32,r1
  3026e2:	84 1b       	mov.b	@(11,r1),r0
  3026e4:	61 03       	mov	r0,r1
  3026e6:	61 1c       	extu.b	r1,r1
  3026e8:	64 13       	mov	r1,r4
  3026ea:	d1 55       	mov.l	302840 <_process_common_keys+0x5b6>,r1	! 30469e <_keycode_digit>
  3026ec:	41 0b       	jsr	@r1
  3026ee:	00 09       	nop	
  3026f0:	62 03       	mov	r0,r2
  3026f2:	61 e3       	mov	r14,r1
  3026f4:	71 e4       	add	#-28,r1
  3026f6:	d3 54       	mov.l	302848 <_process_common_keys+0x5be>,r3	! 30c844
  3026f8:	67 23       	mov	r2,r7
  3026fa:	56 1d       	mov.l	@(52,r1),r6
  3026fc:	65 33       	mov	r3,r5
  3026fe:	64 83       	mov	r8,r4
  302700:	d1 52       	mov.l	30284c <_process_common_keys+0x5c2>,r1	! 309ff0 <_sprintf>
  302702:	41 0b       	jsr	@r1
  302704:	00 09       	nop	
  302706:	a0 93       	bra	302830 <_process_common_keys+0x5a6>
  302708:	00 09       	nop	
  30270a:	61 e3       	mov	r14,r1
  30270c:	71 e4       	add	#-28,r1
  30270e:	71 20       	add	#32,r1
  302710:	84 1b       	mov.b	@(11,r1),r0
  302712:	61 03       	mov	r0,r1
  302714:	62 1c       	extu.b	r1,r2
  302716:	e1 11       	mov	#17,r1
  302718:	32 10       	cmp/eq	r1,r2
  30271a:	8b 41       	bf	3027a0 <_process_common_keys+0x516>
  30271c:	61 e3       	mov	r14,r1
  30271e:	71 e4       	add	#-28,r1
  302720:	51 17       	mov.l	@(28,r1),r1
  302722:	52 11       	mov.l	@(4,r1),r2
  302724:	61 e3       	mov	r14,r1
  302726:	71 e4       	add	#-28,r1
  302728:	51 18       	mov.l	@(32,r1),r1
  30272a:	61 10       	mov.b	@r1,r1
  30272c:	61 1c       	extu.b	r1,r1
  30272e:	41 08       	shll2	r1
  302730:	31 2c       	add	r2,r1
  302732:	62 12       	mov.l	@r1,r2
  302734:	61 e3       	mov	r14,r1
  302736:	71 e4       	add	#-28,r1
  302738:	51 19       	mov.l	@(36,r1),r1
  30273a:	61 10       	mov.b	@r1,r1
  30273c:	61 1c       	extu.b	r1,r1
  30273e:	41 08       	shll2	r1
  302740:	31 2c       	add	r2,r1
  302742:	62 12       	mov.l	@r1,r2
  302744:	61 e3       	mov	r14,r1
  302746:	71 e4       	add	#-28,r1
  302748:	52 26       	mov.l	@(24,r2),r2
  30274a:	11 2e       	mov.l	r2,@(56,r1)
  30274c:	61 e3       	mov	r14,r1
  30274e:	71 e4       	add	#-28,r1
  302750:	54 1e       	mov.l	@(56,r1),r4
  302752:	d1 3c       	mov.l	302844 <_process_common_keys+0x5ba>,r1	! 30a4f6 <_strlen>
  302754:	41 0b       	jsr	@r1
  302756:	00 09       	nop	
  302758:	61 03       	mov	r0,r1
  30275a:	e2 13       	mov	#19,r2
  30275c:	31 26       	cmp/hi	r2,r1
  30275e:	89 d2       	bt	302706 <_process_common_keys+0x47c>
  302760:	61 e3       	mov	r14,r1
  302762:	71 e4       	add	#-28,r1
  302764:	51 17       	mov.l	@(28,r1),r1
  302766:	52 11       	mov.l	@(4,r1),r2
  302768:	61 e3       	mov	r14,r1
  30276a:	71 e4       	add	#-28,r1
  30276c:	51 18       	mov.l	@(32,r1),r1
  30276e:	61 10       	mov.b	@r1,r1
  302770:	61 1c       	extu.b	r1,r1
  302772:	41 08       	shll2	r1
  302774:	31 2c       	add	r2,r1
  302776:	62 12       	mov.l	@r1,r2
  302778:	61 e3       	mov	r14,r1
  30277a:	71 e4       	add	#-28,r1
  30277c:	51 19       	mov.l	@(36,r1),r1
  30277e:	61 10       	mov.b	@r1,r1
  302780:	61 1c       	extu.b	r1,r1
  302782:	41 08       	shll2	r1
  302784:	31 2c       	add	r2,r1
  302786:	61 12       	mov.l	@r1,r1
  302788:	52 16       	mov.l	@(24,r1),r2
  30278a:	61 e3       	mov	r14,r1
  30278c:	71 e4       	add	#-28,r1
  30278e:	d3 30       	mov.l	302850 <_process_common_keys+0x5c6>,r3	! 30c84c
  302790:	56 1e       	mov.l	@(56,r1),r6
  302792:	65 33       	mov	r3,r5
  302794:	64 23       	mov	r2,r4
  302796:	d1 2d       	mov.l	30284c <_process_common_keys+0x5c2>,r1	! 309ff0 <_sprintf>
  302798:	41 0b       	jsr	@r1
  30279a:	00 09       	nop	
  30279c:	a0 48       	bra	302830 <_process_common_keys+0x5a6>
  30279e:	00 09       	nop	
  3027a0:	61 e3       	mov	r14,r1
  3027a2:	71 e4       	add	#-28,r1
  3027a4:	71 20       	add	#32,r1
  3027a6:	84 1b       	mov.b	@(11,r1),r0
  3027a8:	61 03       	mov	r0,r1
  3027aa:	62 1c       	extu.b	r1,r2
  3027ac:	e1 25       	mov	#37,r1
  3027ae:	32 10       	cmp/eq	r1,r2
  3027b0:	8b 3e       	bf	302830 <_process_common_keys+0x5a6>
  3027b2:	61 e3       	mov	r14,r1
  3027b4:	71 e4       	add	#-28,r1
  3027b6:	51 17       	mov.l	@(28,r1),r1
  3027b8:	52 11       	mov.l	@(4,r1),r2
  3027ba:	61 e3       	mov	r14,r1
  3027bc:	71 e4       	add	#-28,r1
  3027be:	51 18       	mov.l	@(32,r1),r1
  3027c0:	61 10       	mov.b	@r1,r1
  3027c2:	61 1c       	extu.b	r1,r1
  3027c4:	41 08       	shll2	r1
  3027c6:	31 2c       	add	r2,r1
  3027c8:	62 12       	mov.l	@r1,r2
  3027ca:	61 e3       	mov	r14,r1
  3027cc:	71 e4       	add	#-28,r1
  3027ce:	51 19       	mov.l	@(36,r1),r1
  3027d0:	61 10       	mov.b	@r1,r1
  3027d2:	61 1c       	extu.b	r1,r1
  3027d4:	41 08       	shll2	r1
  3027d6:	31 2c       	add	r2,r1
  3027d8:	61 12       	mov.l	@r1,r1
  3027da:	51 16       	mov.l	@(24,r1),r1
  3027dc:	68 e3       	mov	r14,r8
  3027de:	78 e4       	add	#-28,r8
  3027e0:	64 13       	mov	r1,r4
  3027e2:	d1 18       	mov.l	302844 <_process_common_keys+0x5ba>,r1	! 30a4f6 <_strlen>
  3027e4:	41 0b       	jsr	@r1
  3027e6:	00 09       	nop	
  3027e8:	61 03       	mov	r0,r1
  3027ea:	18 1f       	mov.l	r1,@(60,r8)
  3027ec:	61 e3       	mov	r14,r1
  3027ee:	71 e4       	add	#-28,r1
  3027f0:	51 1f       	mov.l	@(60,r1),r1
  3027f2:	21 18       	tst	r1,r1
  3027f4:	8b 1c       	bf	302830 <_process_common_keys+0x5a6>
  3027f6:	61 e3       	mov	r14,r1
  3027f8:	71 e4       	add	#-28,r1
  3027fa:	51 17       	mov.l	@(28,r1),r1
  3027fc:	52 11       	mov.l	@(4,r1),r2
  3027fe:	61 e3       	mov	r14,r1
  302800:	71 e4       	add	#-28,r1
  302802:	51 18       	mov.l	@(32,r1),r1
  302804:	61 10       	mov.b	@r1,r1
  302806:	61 1c       	extu.b	r1,r1
  302808:	41 08       	shll2	r1
  30280a:	31 2c       	add	r2,r1
  30280c:	62 12       	mov.l	@r1,r2
  30280e:	61 e3       	mov	r14,r1
  302810:	71 e4       	add	#-28,r1
  302812:	51 19       	mov.l	@(36,r1),r1
  302814:	61 10       	mov.b	@r1,r1
  302816:	61 1c       	extu.b	r1,r1
  302818:	41 08       	shll2	r1
  30281a:	31 2c       	add	r2,r1
  30281c:	61 12       	mov.l	@r1,r1
  30281e:	51 16       	mov.l	@(24,r1),r1
  302820:	e2 2d       	mov	#45,r2
  302822:	21 20       	mov.b	r2,@r1
  302824:	a0 04       	bra	302830 <_process_common_keys+0x5a6>
  302826:	00 09       	nop	
  302828:	00 09       	nop	
  30282a:	a0 01       	bra	302830 <_process_common_keys+0x5a6>
  30282c:	00 09       	nop	
  30282e:	00 09       	nop	
  302830:	7e 24       	add	#36,r14
  302832:	6f e3       	mov	r14,r15
  302834:	4f 26       	lds.l	@r15+,pr
  302836:	6e f6       	mov.l	@r15+,r14
  302838:	68 f6       	mov.l	@r15+,r8
  30283a:	00 0b       	rts	
  30283c:	00 09       	nop	
  30283e:	00 09       	nop	
  302840:	00 30       	.word 0x0030
  302842:	46 9e       	ldc	r6,r1_bank
  302844:	00 30       	.word 0x0030
  302846:	a4 f6       	bra	303236 <_process_key_rowcol_stage+0x6a6>
  302848:	00 30       	.word 0x0030
  30284a:	c8 44       	tst	#68,r0
  30284c:	00 30       	.word 0x0030
  30284e:	9f f0       	mov.w	302a32 <_process_key_construction_stage+0x1de>,r15	! 71dc
  302850:	00 30       	.word 0x0030
  302852:	c8 4c       	tst	#76,r0

00302854 <_process_key_construction_stage>:
  302854:	2f 86       	mov.l	r8,@-r15
  302856:	2f e6       	mov.l	r14,@-r15
  302858:	4f 22       	sts.l	pr,@-r15
  30285a:	7f e4       	add	#-28,r15
  30285c:	6e f3       	mov	r15,r14
  30285e:	61 e3       	mov	r14,r1
  302860:	71 dc       	add	#-36,r1
  302862:	11 4b       	mov.l	r4,@(44,r1)
  302864:	61 e3       	mov	r14,r1
  302866:	71 dc       	add	#-36,r1
  302868:	11 5a       	mov.l	r5,@(40,r1)
  30286a:	61 e3       	mov	r14,r1
  30286c:	71 dc       	add	#-36,r1
  30286e:	11 69       	mov.l	r6,@(36,r1)
  302870:	61 e3       	mov	r14,r1
  302872:	71 dc       	add	#-36,r1
  302874:	71 20       	add	#32,r1
  302876:	84 1f       	mov.b	@(15,r1),r0
  302878:	61 03       	mov	r0,r1
  30287a:	61 1c       	extu.b	r1,r1
  30287c:	67 13       	mov	r1,r7
  30287e:	e2 75       	mov	#117,r2
  302880:	e1 21       	mov	#33,r1
  302882:	63 23       	mov	r2,r3
  302884:	62 13       	mov	r1,r2
  302886:	61 73       	mov	r7,r1
  302888:	31 38       	sub	r3,r1
  30288a:	31 26       	cmp/hi	r2,r1
  30288c:	8b 01       	bf	302892 <_process_key_construction_stage+0x3e>
  30288e:	a1 68       	bra	302b62 <_process_key_construction_stage+0x30e>
  302890:	00 09       	nop	
  302892:	c7 02       	mova	30289c <_process_key_construction_stage+0x48>,r0
  302894:	41 08       	shll2	r1
  302896:	01 1e       	mov.l	@(r0,r1),r1
  302898:	01 23       	braf	r1
  30289a:	00 09       	nop	
  30289c:	00 00       	.word 0x0000
  30289e:	01 4a       	.word 0x014a
  3028a0:	00 00       	.word 0x0000
  3028a2:	02 66       	mov.l	r6,@(r0,r2)
  3028a4:	00 00       	.word 0x0000
  3028a6:	02 c6       	mov.l	r12,@(r0,r2)
  3028a8:	00 00       	.word 0x0000
  3028aa:	02 c6       	mov.l	r12,@(r0,r2)
  3028ac:	00 00       	.word 0x0000
  3028ae:	02 c6       	mov.l	r12,@(r0,r2)
  3028b0:	00 00       	.word 0x0000
  3028b2:	02 c6       	mov.l	r12,@(r0,r2)
  3028b4:	00 00       	.word 0x0000
  3028b6:	02 c6       	mov.l	r12,@(r0,r2)
  3028b8:	00 00       	.word 0x0000
  3028ba:	02 c6       	mov.l	r12,@(r0,r2)
  3028bc:	00 00       	.word 0x0000
  3028be:	02 c6       	mov.l	r12,@(r0,r2)
  3028c0:	00 00       	.word 0x0000
  3028c2:	02 c6       	mov.l	r12,@(r0,r2)
  3028c4:	00 00       	.word 0x0000
  3028c6:	02 c6       	mov.l	r12,@(r0,r2)
  3028c8:	00 00       	.word 0x0000
  3028ca:	02 c6       	mov.l	r12,@(r0,r2)
  3028cc:	00 00       	.word 0x0000
  3028ce:	02 c6       	mov.l	r12,@(r0,r2)
  3028d0:	00 00       	.word 0x0000
  3028d2:	02 c6       	mov.l	r12,@(r0,r2)
  3028d4:	00 00       	.word 0x0000
  3028d6:	02 c6       	mov.l	r12,@(r0,r2)
  3028d8:	00 00       	.word 0x0000
  3028da:	02 c6       	mov.l	r12,@(r0,r2)
  3028dc:	00 00       	.word 0x0000
  3028de:	02 0c       	mov.b	@(r0,r0),r2
  3028e0:	00 00       	.word 0x0000
  3028e2:	00 88       	clrdmxy	
  3028e4:	00 00       	.word 0x0000
  3028e6:	02 c6       	mov.l	r12,@(r0,r2)
  3028e8:	00 00       	.word 0x0000
  3028ea:	02 c6       	mov.l	r12,@(r0,r2)
  3028ec:	00 00       	.word 0x0000
  3028ee:	02 c6       	mov.l	r12,@(r0,r2)
  3028f0:	00 00       	.word 0x0000
  3028f2:	02 c6       	mov.l	r12,@(r0,r2)
  3028f4:	00 00       	.word 0x0000
  3028f6:	02 c6       	mov.l	r12,@(r0,r2)
  3028f8:	00 00       	.word 0x0000
  3028fa:	02 c6       	mov.l	r12,@(r0,r2)
  3028fc:	00 00       	.word 0x0000
  3028fe:	02 c6       	mov.l	r12,@(r0,r2)
  302900:	00 00       	.word 0x0000
  302902:	02 c6       	mov.l	r12,@(r0,r2)
  302904:	00 00       	.word 0x0000
  302906:	02 c6       	mov.l	r12,@(r0,r2)
  302908:	00 00       	.word 0x0000
  30290a:	02 c6       	mov.l	r12,@(r0,r2)
  30290c:	00 00       	.word 0x0000
  30290e:	02 c6       	mov.l	r12,@(r0,r2)
  302910:	00 00       	.word 0x0000
  302912:	02 c6       	mov.l	r12,@(r0,r2)
  302914:	00 00       	.word 0x0000
  302916:	02 c6       	mov.l	r12,@(r0,r2)
  302918:	00 00       	.word 0x0000
  30291a:	02 c6       	mov.l	r12,@(r0,r2)
  30291c:	00 00       	.word 0x0000
  30291e:	02 c6       	mov.l	r12,@(r0,r2)
  302920:	00 00       	.word 0x0000
  302922:	02 c0       	.word 0x02c0
  302924:	61 e3       	mov	r14,r1
  302926:	71 dc       	add	#-36,r1
  302928:	51 1a       	mov.l	@(40,r1),r1
  30292a:	71 10       	add	#16,r1
  30292c:	61 10       	mov.b	@r1,r1
  30292e:	61 1c       	extu.b	r1,r1
  302930:	21 18       	tst	r1,r1
  302932:	89 2b       	bt	30298c <_process_key_construction_stage+0x138>
  302934:	61 e3       	mov	r14,r1
  302936:	71 dc       	add	#-36,r1
  302938:	51 1a       	mov.l	@(40,r1),r1
  30293a:	51 16       	mov.l	@(24,r1),r1
  30293c:	68 e3       	mov	r14,r8
  30293e:	78 dc       	add	#-36,r8
  302940:	62 e3       	mov	r14,r2
  302942:	72 10       	add	#16,r2
  302944:	e6 0a       	mov	#10,r6
  302946:	65 23       	mov	r2,r5
  302948:	64 13       	mov	r1,r4
  30294a:	d1 8a       	mov.l	302b74 <_process_key_construction_stage+0x320>,r1	! 30a158 <_strtol>
  30294c:	41 0b       	jsr	@r1
  30294e:	00 09       	nop	
  302950:	61 03       	mov	r0,r1
  302952:	18 1f       	mov.l	r1,@(60,r8)
  302954:	d1 88       	mov.l	302b78 <_process_key_construction_stage+0x324>,r1	! 30c82a <_MAXROWS>
  302956:	61 10       	mov.b	@r1,r1
  302958:	61 1c       	extu.b	r1,r1
  30295a:	62 13       	mov	r1,r2
  30295c:	61 e3       	mov	r14,r1
  30295e:	71 dc       	add	#-36,r1
  302960:	51 1f       	mov.l	@(60,r1),r1
  302962:	31 23       	cmp/ge	r2,r1
  302964:	89 3c       	bt	3029e0 <_process_key_construction_stage+0x18c>
  302966:	61 e3       	mov	r14,r1
  302968:	71 dc       	add	#-36,r1
  30296a:	51 1a       	mov.l	@(40,r1),r1
  30296c:	52 16       	mov.l	@(24,r1),r2
  30296e:	61 e3       	mov	r14,r1
  302970:	71 dc       	add	#-36,r1
  302972:	51 1f       	mov.l	@(60,r1),r1
  302974:	63 13       	mov	r1,r3
  302976:	73 01       	add	#1,r3
  302978:	d1 80       	mov.l	302b7c <_process_key_construction_stage+0x328>,r1	! 30c850
  30297a:	67 33       	mov	r3,r7
  30297c:	66 13       	mov	r1,r6
  30297e:	e5 03       	mov	#3,r5
  302980:	64 23       	mov	r2,r4
  302982:	d1 7f       	mov.l	302b80 <_process_key_construction_stage+0x32c>,r1	! 309fa4 <_snprintf>
  302984:	41 0b       	jsr	@r1
  302986:	00 09       	nop	
  302988:	a0 2a       	bra	3029e0 <_process_key_construction_stage+0x18c>
  30298a:	00 09       	nop	
  30298c:	61 e3       	mov	r14,r1
  30298e:	71 dc       	add	#-36,r1
  302990:	51 19       	mov.l	@(36,r1),r1
  302992:	51 16       	mov.l	@(24,r1),r1
  302994:	68 e3       	mov	r14,r8
  302996:	78 dc       	add	#-36,r8
  302998:	62 e3       	mov	r14,r2
  30299a:	72 10       	add	#16,r2
  30299c:	e6 0a       	mov	#10,r6
  30299e:	65 23       	mov	r2,r5
  3029a0:	64 13       	mov	r1,r4
  3029a2:	d1 74       	mov.l	302b74 <_process_key_construction_stage+0x320>,r1	! 30a158 <_strtol>
  3029a4:	41 0b       	jsr	@r1
  3029a6:	00 09       	nop	
  3029a8:	61 03       	mov	r0,r1
  3029aa:	18 1f       	mov.l	r1,@(60,r8)
  3029ac:	d1 75       	mov.l	302b84 <_process_key_construction_stage+0x330>,r1	! 30c82b <_MAXCOLS>
  3029ae:	61 10       	mov.b	@r1,r1
  3029b0:	61 1c       	extu.b	r1,r1
  3029b2:	62 13       	mov	r1,r2
  3029b4:	61 e3       	mov	r14,r1
  3029b6:	71 dc       	add	#-36,r1
  3029b8:	51 1f       	mov.l	@(60,r1),r1
  3029ba:	31 23       	cmp/ge	r2,r1
  3029bc:	89 10       	bt	3029e0 <_process_key_construction_stage+0x18c>
  3029be:	61 e3       	mov	r14,r1
  3029c0:	71 dc       	add	#-36,r1
  3029c2:	51 19       	mov.l	@(36,r1),r1
  3029c4:	52 16       	mov.l	@(24,r1),r2
  3029c6:	61 e3       	mov	r14,r1
  3029c8:	71 dc       	add	#-36,r1
  3029ca:	51 1f       	mov.l	@(60,r1),r1
  3029cc:	63 13       	mov	r1,r3
  3029ce:	73 01       	add	#1,r3
  3029d0:	d1 6a       	mov.l	302b7c <_process_key_construction_stage+0x328>,r1	! 30c850
  3029d2:	67 33       	mov	r3,r7
  3029d4:	66 13       	mov	r1,r6
  3029d6:	e5 03       	mov	#3,r5
  3029d8:	64 23       	mov	r2,r4
  3029da:	d1 69       	mov.l	302b80 <_process_key_construction_stage+0x32c>,r1	! 309fa4 <_snprintf>
  3029dc:	41 0b       	jsr	@r1
  3029de:	00 09       	nop	
  3029e0:	e1 00       	mov	#0,r1
  3029e2:	a0 be       	bra	302b62 <_process_key_construction_stage+0x30e>
  3029e4:	00 09       	nop	
  3029e6:	61 e3       	mov	r14,r1
  3029e8:	71 dc       	add	#-36,r1
  3029ea:	51 1a       	mov.l	@(40,r1),r1
  3029ec:	71 10       	add	#16,r1
  3029ee:	61 10       	mov.b	@r1,r1
  3029f0:	61 1c       	extu.b	r1,r1
  3029f2:	21 18       	tst	r1,r1
  3029f4:	89 2b       	bt	302a4e <_process_key_construction_stage+0x1fa>
  3029f6:	61 e3       	mov	r14,r1
  3029f8:	71 dc       	add	#-36,r1
  3029fa:	51 1a       	mov.l	@(40,r1),r1
  3029fc:	51 16       	mov.l	@(24,r1),r1
  3029fe:	68 e3       	mov	r14,r8
  302a00:	78 dc       	add	#-36,r8
  302a02:	62 e3       	mov	r14,r2
  302a04:	72 0c       	add	#12,r2
  302a06:	e6 0a       	mov	#10,r6
  302a08:	65 23       	mov	r2,r5
  302a0a:	64 13       	mov	r1,r4
  302a0c:	d1 59       	mov.l	302b74 <_process_key_construction_stage+0x320>,r1	! 30a158 <_strtol>
  302a0e:	41 0b       	jsr	@r1
  302a10:	00 09       	nop	
  302a12:	61 03       	mov	r0,r1
  302a14:	18 1e       	mov.l	r1,@(56,r8)
  302a16:	d1 5c       	mov.l	302b88 <_process_key_construction_stage+0x334>,r1	! 30c82c <_MINROWS>
  302a18:	61 10       	mov.b	@r1,r1
  302a1a:	61 1c       	extu.b	r1,r1
  302a1c:	62 13       	mov	r1,r2
  302a1e:	61 e3       	mov	r14,r1
  302a20:	71 dc       	add	#-36,r1
  302a22:	51 1e       	mov.l	@(56,r1),r1
  302a24:	31 27       	cmp/gt	r2,r1
  302a26:	8b 3c       	bf	302aa2 <_process_key_construction_stage+0x24e>
  302a28:	61 e3       	mov	r14,r1
  302a2a:	71 dc       	add	#-36,r1
  302a2c:	51 1a       	mov.l	@(40,r1),r1
  302a2e:	52 16       	mov.l	@(24,r1),r2
  302a30:	61 e3       	mov	r14,r1
  302a32:	71 dc       	add	#-36,r1
  302a34:	51 1e       	mov.l	@(56,r1),r1
  302a36:	63 13       	mov	r1,r3
  302a38:	73 ff       	add	#-1,r3
  302a3a:	d1 50       	mov.l	302b7c <_process_key_construction_stage+0x328>,r1	! 30c850
  302a3c:	67 33       	mov	r3,r7
  302a3e:	66 13       	mov	r1,r6
  302a40:	e5 03       	mov	#3,r5
  302a42:	64 23       	mov	r2,r4
  302a44:	d1 4e       	mov.l	302b80 <_process_key_construction_stage+0x32c>,r1	! 309fa4 <_snprintf>
  302a46:	41 0b       	jsr	@r1
  302a48:	00 09       	nop	
  302a4a:	a0 2a       	bra	302aa2 <_process_key_construction_stage+0x24e>
  302a4c:	00 09       	nop	
  302a4e:	61 e3       	mov	r14,r1
  302a50:	71 dc       	add	#-36,r1
  302a52:	51 19       	mov.l	@(36,r1),r1
  302a54:	51 16       	mov.l	@(24,r1),r1
  302a56:	68 e3       	mov	r14,r8
  302a58:	78 dc       	add	#-36,r8
  302a5a:	62 e3       	mov	r14,r2
  302a5c:	72 0c       	add	#12,r2
  302a5e:	e6 0a       	mov	#10,r6
  302a60:	65 23       	mov	r2,r5
  302a62:	64 13       	mov	r1,r4
  302a64:	d1 43       	mov.l	302b74 <_process_key_construction_stage+0x320>,r1	! 30a158 <_strtol>
  302a66:	41 0b       	jsr	@r1
  302a68:	00 09       	nop	
  302a6a:	61 03       	mov	r0,r1
  302a6c:	18 1e       	mov.l	r1,@(56,r8)
  302a6e:	d1 47       	mov.l	302b8c <_process_key_construction_stage+0x338>,r1	! 30c82d <_MINCOLS>
  302a70:	61 10       	mov.b	@r1,r1
  302a72:	61 1c       	extu.b	r1,r1
  302a74:	62 13       	mov	r1,r2
  302a76:	61 e3       	mov	r14,r1
  302a78:	71 dc       	add	#-36,r1
  302a7a:	51 1e       	mov.l	@(56,r1),r1
  302a7c:	31 27       	cmp/gt	r2,r1
  302a7e:	8b 10       	bf	302aa2 <_process_key_construction_stage+0x24e>
  302a80:	61 e3       	mov	r14,r1
  302a82:	71 dc       	add	#-36,r1
  302a84:	51 19       	mov.l	@(36,r1),r1
  302a86:	52 16       	mov.l	@(24,r1),r2
  302a88:	61 e3       	mov	r14,r1
  302a8a:	71 dc       	add	#-36,r1
  302a8c:	51 1e       	mov.l	@(56,r1),r1
  302a8e:	63 13       	mov	r1,r3
  302a90:	73 ff       	add	#-1,r3
  302a92:	d1 3a       	mov.l	302b7c <_process_key_construction_stage+0x328>,r1	! 30c850
  302a94:	67 33       	mov	r3,r7
  302a96:	66 13       	mov	r1,r6
  302a98:	e5 03       	mov	#3,r5
  302a9a:	64 23       	mov	r2,r4
  302a9c:	d1 38       	mov.l	302b80 <_process_key_construction_stage+0x32c>,r1	! 309fa4 <_snprintf>
  302a9e:	41 0b       	jsr	@r1
  302aa0:	00 09       	nop	
  302aa2:	e1 00       	mov	#0,r1
  302aa4:	a0 5d       	bra	302b62 <_process_key_construction_stage+0x30e>
  302aa6:	00 09       	nop	
  302aa8:	61 e3       	mov	r14,r1
  302aaa:	71 dc       	add	#-36,r1
  302aac:	51 1a       	mov.l	@(40,r1),r1
  302aae:	71 10       	add	#16,r1
  302ab0:	61 10       	mov.b	@r1,r1
  302ab2:	61 1c       	extu.b	r1,r1
  302ab4:	21 18       	tst	r1,r1
  302ab6:	e1 ff       	mov	#-1,r1
  302ab8:	61 1a       	negc	r1,r1
  302aba:	61 1c       	extu.b	r1,r1
  302abc:	e2 01       	mov	#1,r2
  302abe:	21 2a       	xor	r2,r1
  302ac0:	61 1c       	extu.b	r1,r1
  302ac2:	e0 01       	mov	#1,r0
  302ac4:	21 09       	and	r0,r1
  302ac6:	62 1c       	extu.b	r1,r2
  302ac8:	61 e3       	mov	r14,r1
  302aca:	71 dc       	add	#-36,r1
  302acc:	51 1a       	mov.l	@(40,r1),r1
  302ace:	71 10       	add	#16,r1
  302ad0:	21 20       	mov.b	r2,@r1
  302ad2:	61 e3       	mov	r14,r1
  302ad4:	71 dc       	add	#-36,r1
  302ad6:	51 19       	mov.l	@(36,r1),r1
  302ad8:	71 10       	add	#16,r1
  302ada:	61 10       	mov.b	@r1,r1
  302adc:	61 1c       	extu.b	r1,r1
  302ade:	21 18       	tst	r1,r1
  302ae0:	e1 ff       	mov	#-1,r1
  302ae2:	61 1a       	negc	r1,r1
  302ae4:	61 1c       	extu.b	r1,r1
  302ae6:	e2 01       	mov	#1,r2
  302ae8:	21 2a       	xor	r2,r1
  302aea:	61 1c       	extu.b	r1,r1
  302aec:	e0 01       	mov	#1,r0
  302aee:	21 09       	and	r0,r1
  302af0:	62 1c       	extu.b	r1,r2
  302af2:	61 e3       	mov	r14,r1
  302af4:	71 dc       	add	#-36,r1
  302af6:	51 19       	mov.l	@(36,r1),r1
  302af8:	71 10       	add	#16,r1
  302afa:	21 20       	mov.b	r2,@r1
  302afc:	e1 00       	mov	#0,r1
  302afe:	a0 30       	bra	302b62 <_process_key_construction_stage+0x30e>
  302b00:	00 09       	nop	
  302b02:	61 e3       	mov	r14,r1
  302b04:	71 dc       	add	#-36,r1
  302b06:	51 1a       	mov.l	@(40,r1),r1
  302b08:	71 10       	add	#16,r1
  302b0a:	61 10       	mov.b	@r1,r1
  302b0c:	61 1c       	extu.b	r1,r1
  302b0e:	21 18       	tst	r1,r1
  302b10:	e1 ff       	mov	#-1,r1
  302b12:	61 1a       	negc	r1,r1
  302b14:	61 1c       	extu.b	r1,r1
  302b16:	e2 01       	mov	#1,r2
  302b18:	21 2a       	xor	r2,r1
  302b1a:	61 1c       	extu.b	r1,r1
  302b1c:	e0 01       	mov	#1,r0
  302b1e:	21 09       	and	r0,r1
  302b20:	62 1c       	extu.b	r1,r2
  302b22:	61 e3       	mov	r14,r1
  302b24:	71 dc       	add	#-36,r1
  302b26:	51 1a       	mov.l	@(40,r1),r1
  302b28:	71 10       	add	#16,r1
  302b2a:	21 20       	mov.b	r2,@r1
  302b2c:	61 e3       	mov	r14,r1
  302b2e:	71 dc       	add	#-36,r1
  302b30:	51 19       	mov.l	@(36,r1),r1
  302b32:	71 10       	add	#16,r1
  302b34:	61 10       	mov.b	@r1,r1
  302b36:	61 1c       	extu.b	r1,r1
  302b38:	21 18       	tst	r1,r1
  302b3a:	e1 ff       	mov	#-1,r1
  302b3c:	61 1a       	negc	r1,r1
  302b3e:	61 1c       	extu.b	r1,r1
  302b40:	e2 01       	mov	#1,r2
  302b42:	21 2a       	xor	r2,r1
  302b44:	61 1c       	extu.b	r1,r1
  302b46:	e0 01       	mov	#1,r0
  302b48:	21 09       	and	r0,r1
  302b4a:	62 1c       	extu.b	r1,r2
  302b4c:	61 e3       	mov	r14,r1
  302b4e:	71 dc       	add	#-36,r1
  302b50:	51 19       	mov.l	@(36,r1),r1
  302b52:	71 10       	add	#16,r1
  302b54:	21 20       	mov.b	r2,@r1
  302b56:	e1 00       	mov	#0,r1
  302b58:	a0 03       	bra	302b62 <_process_key_construction_stage+0x30e>
  302b5a:	00 09       	nop	
  302b5c:	e1 01       	mov	#1,r1
  302b5e:	a0 00       	bra	302b62 <_process_key_construction_stage+0x30e>
  302b60:	00 09       	nop	
  302b62:	60 13       	mov	r1,r0
  302b64:	7e 1c       	add	#28,r14
  302b66:	6f e3       	mov	r14,r15
  302b68:	4f 26       	lds.l	@r15+,pr
  302b6a:	6e f6       	mov.l	@r15+,r14
  302b6c:	68 f6       	mov.l	@r15+,r8
  302b6e:	00 0b       	rts	
  302b70:	00 09       	nop	
  302b72:	00 09       	nop	
  302b74:	00 30       	.word 0x0030
  302b76:	a1 58       	bra	302e2a <_process_key_rowcol_stage+0x29a>
  302b78:	00 30       	.word 0x0030
  302b7a:	c8 2a       	tst	#42,r0
  302b7c:	00 30       	.word 0x0030
  302b7e:	c8 50       	tst	#80,r0
  302b80:	00 30       	.word 0x0030
  302b82:	9f a4       	mov.w	302cce <_process_key_rowcol_stage+0x13e>,r15	! 3564
  302b84:	00 30       	.word 0x0030
  302b86:	c8 2b       	tst	#43,r0
  302b88:	00 30       	.word 0x0030
  302b8a:	c8 2c       	tst	#44,r0
  302b8c:	00 30       	.word 0x0030
  302b8e:	c8 2d       	tst	#45,r0

00302b90 <_process_key_rowcol_stage>:
  302b90:	2f e6       	mov.l	r14,@-r15
  302b92:	4f 22       	sts.l	pr,@-r15
  302b94:	7f d8       	add	#-40,r15
  302b96:	6e f3       	mov	r15,r14
  302b98:	61 e3       	mov	r14,r1
  302b9a:	71 e8       	add	#-24,r1
  302b9c:	11 49       	mov.l	r4,@(36,r1)
  302b9e:	61 e3       	mov	r14,r1
  302ba0:	71 e8       	add	#-24,r1
  302ba2:	11 58       	mov.l	r5,@(32,r1)
  302ba4:	61 e3       	mov	r14,r1
  302ba6:	71 e8       	add	#-24,r1
  302ba8:	11 67       	mov.l	r6,@(28,r1)
  302baa:	61 e3       	mov	r14,r1
  302bac:	71 e8       	add	#-24,r1
  302bae:	11 76       	mov.l	r7,@(24,r1)
  302bb0:	61 e3       	mov	r14,r1
  302bb2:	71 e8       	add	#-24,r1
  302bb4:	71 20       	add	#32,r1
  302bb6:	84 17       	mov.b	@(7,r1),r0
  302bb8:	61 03       	mov	r0,r1
  302bba:	62 1c       	extu.b	r1,r2
  302bbc:	91 85       	mov.w	302cca <_process_key_rowcol_stage+0x13a>,r1	! 96
  302bbe:	32 10       	cmp/eq	r1,r2
  302bc0:	8b 08       	bf	302bd4 <_process_key_rowcol_stage+0x44>
  302bc2:	61 e3       	mov	r14,r1
  302bc4:	71 e8       	add	#-24,r1
  302bc6:	54 16       	mov.l	@(24,r1),r4
  302bc8:	d1 40       	mov.l	302ccc <_process_key_rowcol_stage+0x13c>,r1	! 303564 <_check_stage_0>
  302bca:	41 0b       	jsr	@r1
  302bcc:	00 09       	nop	
  302bce:	61 03       	mov	r0,r1
  302bd0:	21 18       	tst	r1,r1
  302bd2:	8b 01       	bf	302bd8 <_process_key_rowcol_stage+0x48>
  302bd4:	a0 b8       	bra	302d48 <_process_key_rowcol_stage+0x1b8>
  302bd6:	00 09       	nop	
  302bd8:	61 e3       	mov	r14,r1
  302bda:	71 e8       	add	#-24,r1
  302bdc:	e2 00       	mov	#0,r2
  302bde:	11 2f       	mov.l	r2,@(60,r1)
  302be0:	a0 25       	bra	302c2e <_process_key_rowcol_stage+0x9e>
  302be2:	00 09       	nop	
  302be4:	61 e3       	mov	r14,r1
  302be6:	71 e8       	add	#-24,r1
  302be8:	51 16       	mov.l	@(24,r1),r1
  302bea:	51 11       	mov.l	@(4,r1),r1
  302bec:	62 12       	mov.l	@r1,r2
  302bee:	61 e3       	mov	r14,r1
  302bf0:	71 e8       	add	#-24,r1
  302bf2:	51 1f       	mov.l	@(60,r1),r1
  302bf4:	41 08       	shll2	r1
  302bf6:	31 2c       	add	r2,r1
  302bf8:	61 12       	mov.l	@r1,r1
  302bfa:	71 10       	add	#16,r1
  302bfc:	e2 00       	mov	#0,r2
  302bfe:	60 23       	mov	r2,r0
  302c00:	80 12       	mov.b	r0,@(2,r1)
  302c02:	61 e3       	mov	r14,r1
  302c04:	71 e8       	add	#-24,r1
  302c06:	51 16       	mov.l	@(24,r1),r1
  302c08:	51 11       	mov.l	@(4,r1),r1
  302c0a:	62 12       	mov.l	@r1,r2
  302c0c:	61 e3       	mov	r14,r1
  302c0e:	71 e8       	add	#-24,r1
  302c10:	51 1f       	mov.l	@(60,r1),r1
  302c12:	41 08       	shll2	r1
  302c14:	31 2c       	add	r2,r1
  302c16:	61 12       	mov.l	@r1,r1
  302c18:	71 10       	add	#16,r1
  302c1a:	e2 00       	mov	#0,r2
  302c1c:	60 23       	mov	r2,r0
  302c1e:	80 11       	mov.b	r0,@(1,r1)
  302c20:	61 e3       	mov	r14,r1
  302c22:	71 e8       	add	#-24,r1
  302c24:	62 e3       	mov	r14,r2
  302c26:	72 e8       	add	#-24,r2
  302c28:	52 2f       	mov.l	@(60,r2),r2
  302c2a:	72 01       	add	#1,r2
  302c2c:	11 2f       	mov.l	r2,@(60,r1)
  302c2e:	61 e3       	mov	r14,r1
  302c30:	71 e8       	add	#-24,r1
  302c32:	51 16       	mov.l	@(24,r1),r1
  302c34:	84 11       	mov.b	@(1,r1),r0
  302c36:	61 03       	mov	r0,r1
  302c38:	61 1c       	extu.b	r1,r1
  302c3a:	62 13       	mov	r1,r2
  302c3c:	61 e3       	mov	r14,r1
  302c3e:	71 e8       	add	#-24,r1
  302c40:	51 1f       	mov.l	@(60,r1),r1
  302c42:	31 23       	cmp/ge	r2,r1
  302c44:	8b ce       	bf	302be4 <_process_key_rowcol_stage+0x54>
  302c46:	61 e3       	mov	r14,r1
  302c48:	71 e8       	add	#-24,r1
  302c4a:	e2 00       	mov	#0,r2
  302c4c:	11 2e       	mov.l	r2,@(56,r1)
  302c4e:	a0 25       	bra	302c9c <_process_key_rowcol_stage+0x10c>
  302c50:	00 09       	nop	
  302c52:	61 e3       	mov	r14,r1
  302c54:	71 e8       	add	#-24,r1
  302c56:	51 16       	mov.l	@(24,r1),r1
  302c58:	52 11       	mov.l	@(4,r1),r2
  302c5a:	61 e3       	mov	r14,r1
  302c5c:	71 e8       	add	#-24,r1
  302c5e:	51 1e       	mov.l	@(56,r1),r1
  302c60:	41 08       	shll2	r1
  302c62:	31 2c       	add	r2,r1
  302c64:	61 12       	mov.l	@r1,r1
  302c66:	61 12       	mov.l	@r1,r1
  302c68:	71 10       	add	#16,r1
  302c6a:	e2 00       	mov	#0,r2
  302c6c:	60 23       	mov	r2,r0
  302c6e:	80 12       	mov.b	r0,@(2,r1)
  302c70:	61 e3       	mov	r14,r1
  302c72:	71 e8       	add	#-24,r1
  302c74:	51 16       	mov.l	@(24,r1),r1
  302c76:	52 11       	mov.l	@(4,r1),r2
  302c78:	61 e3       	mov	r14,r1
  302c7a:	71 e8       	add	#-24,r1
  302c7c:	51 1e       	mov.l	@(56,r1),r1
  302c7e:	41 08       	shll2	r1
  302c80:	31 2c       	add	r2,r1
  302c82:	61 12       	mov.l	@r1,r1
  302c84:	61 12       	mov.l	@r1,r1
  302c86:	71 10       	add	#16,r1
  302c88:	e2 00       	mov	#0,r2
  302c8a:	60 23       	mov	r2,r0
  302c8c:	80 11       	mov.b	r0,@(1,r1)
  302c8e:	61 e3       	mov	r14,r1
  302c90:	71 e8       	add	#-24,r1
  302c92:	62 e3       	mov	r14,r2
  302c94:	72 e8       	add	#-24,r2
  302c96:	52 2e       	mov.l	@(56,r2),r2
  302c98:	72 01       	add	#1,r2
  302c9a:	11 2e       	mov.l	r2,@(56,r1)
  302c9c:	61 e3       	mov	r14,r1
  302c9e:	71 e8       	add	#-24,r1
  302ca0:	51 16       	mov.l	@(24,r1),r1
  302ca2:	61 10       	mov.b	@r1,r1
  302ca4:	61 1c       	extu.b	r1,r1
  302ca6:	62 13       	mov	r1,r2
  302ca8:	61 e3       	mov	r14,r1
  302caa:	71 e8       	add	#-24,r1
  302cac:	51 1e       	mov.l	@(56,r1),r1
  302cae:	31 23       	cmp/ge	r2,r1
  302cb0:	8b cf       	bf	302c52 <_process_key_rowcol_stage+0xc2>
  302cb2:	61 e3       	mov	r14,r1
  302cb4:	71 e8       	add	#-24,r1
  302cb6:	e2 01       	mov	#1,r2
  302cb8:	11 2d       	mov.l	r2,@(52,r1)
  302cba:	a0 37       	bra	302d2c <_process_key_rowcol_stage+0x19c>
  302cbc:	00 09       	nop	
  302cbe:	61 e3       	mov	r14,r1
  302cc0:	71 e8       	add	#-24,r1
  302cc2:	e2 01       	mov	#1,r2
  302cc4:	11 2c       	mov.l	r2,@(48,r1)
  302cc6:	a0 1e       	bra	302d06 <_process_key_rowcol_stage+0x176>
  302cc8:	00 09       	nop	
  302cca:	00 96       	mov.l	r9,@(r0,r0)
  302ccc:	00 30       	.word 0x0030
  302cce:	35 64       	div1	r6,r5
  302cd0:	61 e3       	mov	r14,r1
  302cd2:	71 e8       	add	#-24,r1
  302cd4:	51 16       	mov.l	@(24,r1),r1
  302cd6:	52 11       	mov.l	@(4,r1),r2
  302cd8:	61 e3       	mov	r14,r1
  302cda:	71 e8       	add	#-24,r1
  302cdc:	51 1d       	mov.l	@(52,r1),r1
  302cde:	41 08       	shll2	r1
  302ce0:	31 2c       	add	r2,r1
  302ce2:	62 12       	mov.l	@r1,r2
  302ce4:	61 e3       	mov	r14,r1
  302ce6:	71 e8       	add	#-24,r1
  302ce8:	51 1c       	mov.l	@(48,r1),r1
  302cea:	41 08       	shll2	r1
  302cec:	31 2c       	add	r2,r1
  302cee:	61 12       	mov.l	@r1,r1
  302cf0:	71 10       	add	#16,r1
  302cf2:	e2 01       	mov	#1,r2
  302cf4:	60 23       	mov	r2,r0
  302cf6:	80 12       	mov.b	r0,@(2,r1)
  302cf8:	61 e3       	mov	r14,r1
  302cfa:	71 e8       	add	#-24,r1
  302cfc:	62 e3       	mov	r14,r2
  302cfe:	72 e8       	add	#-24,r2
  302d00:	52 2c       	mov.l	@(48,r2),r2
  302d02:	72 01       	add	#1,r2
  302d04:	11 2c       	mov.l	r2,@(48,r1)
  302d06:	61 e3       	mov	r14,r1
  302d08:	71 e8       	add	#-24,r1
  302d0a:	51 16       	mov.l	@(24,r1),r1
  302d0c:	84 11       	mov.b	@(1,r1),r0
  302d0e:	61 03       	mov	r0,r1
  302d10:	61 1c       	extu.b	r1,r1
  302d12:	62 13       	mov	r1,r2
  302d14:	61 e3       	mov	r14,r1
  302d16:	71 e8       	add	#-24,r1
  302d18:	51 1c       	mov.l	@(48,r1),r1
  302d1a:	31 23       	cmp/ge	r2,r1
  302d1c:	8b d8       	bf	302cd0 <_process_key_rowcol_stage+0x140>
  302d1e:	61 e3       	mov	r14,r1
  302d20:	71 e8       	add	#-24,r1
  302d22:	62 e3       	mov	r14,r2
  302d24:	72 e8       	add	#-24,r2
  302d26:	52 2d       	mov.l	@(52,r2),r2
  302d28:	72 01       	add	#1,r2
  302d2a:	11 2d       	mov.l	r2,@(52,r1)
  302d2c:	61 e3       	mov	r14,r1
  302d2e:	71 e8       	add	#-24,r1
  302d30:	51 16       	mov.l	@(24,r1),r1
  302d32:	61 10       	mov.b	@r1,r1
  302d34:	61 1c       	extu.b	r1,r1
  302d36:	62 13       	mov	r1,r2
  302d38:	61 e3       	mov	r14,r1
  302d3a:	71 e8       	add	#-24,r1
  302d3c:	51 1d       	mov.l	@(52,r1),r1
  302d3e:	31 23       	cmp/ge	r2,r1
  302d40:	8b bd       	bf	302cbe <_process_key_rowcol_stage+0x12e>
  302d42:	e1 01       	mov	#1,r1
  302d44:	a2 84       	bra	303250 <_process_key_rowcol_stage+0x6c0>
  302d46:	00 09       	nop	
  302d48:	61 e3       	mov	r14,r1
  302d4a:	71 e8       	add	#-24,r1
  302d4c:	71 20       	add	#32,r1
  302d4e:	84 17       	mov.b	@(7,r1),r0
  302d50:	61 03       	mov	r0,r1
  302d52:	62 1c       	extu.b	r1,r2
  302d54:	e1 15       	mov	#21,r1
  302d56:	32 10       	cmp/eq	r1,r2
  302d58:	8b 57       	bf	302e0a <_process_key_rowcol_stage+0x27a>
  302d5a:	61 e3       	mov	r14,r1
  302d5c:	71 e8       	add	#-24,r1
  302d5e:	51 16       	mov.l	@(24,r1),r1
  302d60:	52 11       	mov.l	@(4,r1),r2
  302d62:	61 e3       	mov	r14,r1
  302d64:	71 e8       	add	#-24,r1
  302d66:	51 17       	mov.l	@(28,r1),r1
  302d68:	61 10       	mov.b	@r1,r1
  302d6a:	61 1c       	extu.b	r1,r1
  302d6c:	41 08       	shll2	r1
  302d6e:	31 2c       	add	r2,r1
  302d70:	62 12       	mov.l	@r1,r2
  302d72:	61 e3       	mov	r14,r1
  302d74:	71 e8       	add	#-24,r1
  302d76:	51 18       	mov.l	@(32,r1),r1
  302d78:	61 10       	mov.b	@r1,r1
  302d7a:	61 1c       	extu.b	r1,r1
  302d7c:	41 08       	shll2	r1
  302d7e:	31 2c       	add	r2,r1
  302d80:	61 12       	mov.l	@r1,r1
  302d82:	71 10       	add	#16,r1
  302d84:	84 12       	mov.b	@(2,r1),r0
  302d86:	61 03       	mov	r0,r1
  302d88:	61 1c       	extu.b	r1,r1
  302d8a:	21 18       	tst	r1,r1
  302d8c:	89 3a       	bt	302e04 <_process_key_rowcol_stage+0x274>
  302d8e:	61 e3       	mov	r14,r1
  302d90:	71 e8       	add	#-24,r1
  302d92:	51 16       	mov.l	@(24,r1),r1
  302d94:	52 11       	mov.l	@(4,r1),r2
  302d96:	61 e3       	mov	r14,r1
  302d98:	71 e8       	add	#-24,r1
  302d9a:	51 17       	mov.l	@(28,r1),r1
  302d9c:	61 10       	mov.b	@r1,r1
  302d9e:	61 1c       	extu.b	r1,r1
  302da0:	41 08       	shll2	r1
  302da2:	31 2c       	add	r2,r1
  302da4:	62 12       	mov.l	@r1,r2
  302da6:	61 e3       	mov	r14,r1
  302da8:	71 e8       	add	#-24,r1
  302daa:	51 18       	mov.l	@(32,r1),r1
  302dac:	61 10       	mov.b	@r1,r1
  302dae:	61 1c       	extu.b	r1,r1
  302db0:	41 08       	shll2	r1
  302db2:	31 2c       	add	r2,r1
  302db4:	61 12       	mov.l	@r1,r1
  302db6:	71 10       	add	#16,r1
  302db8:	84 11       	mov.b	@(1,r1),r0
  302dba:	61 03       	mov	r0,r1
  302dbc:	61 1c       	extu.b	r1,r1
  302dbe:	21 18       	tst	r1,r1
  302dc0:	e1 ff       	mov	#-1,r1
  302dc2:	61 1a       	negc	r1,r1
  302dc4:	61 1c       	extu.b	r1,r1
  302dc6:	e2 01       	mov	#1,r2
  302dc8:	21 2a       	xor	r2,r1
  302dca:	61 1c       	extu.b	r1,r1
  302dcc:	63 13       	mov	r1,r3
  302dce:	61 e3       	mov	r14,r1
  302dd0:	71 e8       	add	#-24,r1
  302dd2:	51 16       	mov.l	@(24,r1),r1
  302dd4:	52 11       	mov.l	@(4,r1),r2
  302dd6:	61 e3       	mov	r14,r1
  302dd8:	71 e8       	add	#-24,r1
  302dda:	51 17       	mov.l	@(28,r1),r1
  302ddc:	61 10       	mov.b	@r1,r1
  302dde:	61 1c       	extu.b	r1,r1
  302de0:	41 08       	shll2	r1
  302de2:	31 2c       	add	r2,r1
  302de4:	62 12       	mov.l	@r1,r2
  302de6:	61 e3       	mov	r14,r1
  302de8:	71 e8       	add	#-24,r1
  302dea:	51 18       	mov.l	@(32,r1),r1
  302dec:	61 10       	mov.b	@r1,r1
  302dee:	61 1c       	extu.b	r1,r1
  302df0:	41 08       	shll2	r1
  302df2:	31 2c       	add	r2,r1
  302df4:	61 12       	mov.l	@r1,r1
  302df6:	62 33       	mov	r3,r2
  302df8:	e3 01       	mov	#1,r3
  302dfa:	22 39       	and	r3,r2
  302dfc:	62 2c       	extu.b	r2,r2
  302dfe:	71 10       	add	#16,r1
  302e00:	60 23       	mov	r2,r0
  302e02:	80 11       	mov.b	r0,@(1,r1)
  302e04:	e1 00       	mov	#0,r1
  302e06:	a2 23       	bra	303250 <_process_key_rowcol_stage+0x6c0>
  302e08:	00 09       	nop	
  302e0a:	61 e3       	mov	r14,r1
  302e0c:	71 e8       	add	#-24,r1
  302e0e:	51 16       	mov.l	@(24,r1),r1
  302e10:	52 11       	mov.l	@(4,r1),r2
  302e12:	61 e3       	mov	r14,r1
  302e14:	71 e8       	add	#-24,r1
  302e16:	51 17       	mov.l	@(28,r1),r1
  302e18:	61 10       	mov.b	@r1,r1
  302e1a:	61 1c       	extu.b	r1,r1
  302e1c:	41 08       	shll2	r1
  302e1e:	31 2c       	add	r2,r1
  302e20:	62 12       	mov.l	@r1,r2
  302e22:	61 e3       	mov	r14,r1
  302e24:	71 e8       	add	#-24,r1
  302e26:	51 18       	mov.l	@(32,r1),r1
  302e28:	61 10       	mov.b	@r1,r1
  302e2a:	61 1c       	extu.b	r1,r1
  302e2c:	41 08       	shll2	r1
  302e2e:	31 2c       	add	r2,r1
  302e30:	61 12       	mov.l	@r1,r1
  302e32:	71 10       	add	#16,r1
  302e34:	84 11       	mov.b	@(1,r1),r0
  302e36:	61 03       	mov	r0,r1
  302e38:	61 1c       	extu.b	r1,r1
  302e3a:	e2 01       	mov	#1,r2
  302e3c:	21 2a       	xor	r2,r1
  302e3e:	61 1c       	extu.b	r1,r1
  302e40:	21 18       	tst	r1,r1
  302e42:	89 10       	bt	302e66 <_process_key_rowcol_stage+0x2d6>
  302e44:	67 e3       	mov	r14,r7
  302e46:	77 e8       	add	#-24,r7
  302e48:	63 e3       	mov	r14,r3
  302e4a:	73 e8       	add	#-24,r3
  302e4c:	62 e3       	mov	r14,r2
  302e4e:	72 e8       	add	#-24,r2
  302e50:	61 e3       	mov	r14,r1
  302e52:	71 e8       	add	#-24,r1
  302e54:	57 76       	mov.l	@(24,r7),r7
  302e56:	56 37       	mov.l	@(28,r3),r6
  302e58:	55 28       	mov.l	@(32,r2),r5
  302e5a:	54 19       	mov.l	@(36,r1),r4
  302e5c:	d1 12       	mov.l	302ea8 <_process_key_rowcol_stage+0x318>,r1	! 302114 <_process_cursor_movement>
  302e5e:	41 0b       	jsr	@r1
  302e60:	00 09       	nop	
  302e62:	a1 f4       	bra	30324e <_process_key_rowcol_stage+0x6be>
  302e64:	00 09       	nop	
  302e66:	61 e3       	mov	r14,r1
  302e68:	71 e8       	add	#-24,r1
  302e6a:	52 19       	mov.l	@(36,r1),r2
  302e6c:	91 1a       	mov.w	302ea4 <_process_key_rowcol_stage+0x314>,r1	! 400
  302e6e:	21 29       	and	r2,r1
  302e70:	21 18       	tst	r1,r1
  302e72:	8b 01       	bf	302e78 <_process_key_rowcol_stage+0x2e8>
  302e74:	a1 dc       	bra	303230 <_process_key_rowcol_stage+0x6a0>
  302e76:	00 09       	nop	
  302e78:	61 e3       	mov	r14,r1
  302e7a:	71 e8       	add	#-24,r1
  302e7c:	71 20       	add	#32,r1
  302e7e:	84 17       	mov.b	@(7,r1),r0
  302e80:	61 03       	mov	r0,r1
  302e82:	61 1c       	extu.b	r1,r1
  302e84:	67 13       	mov	r1,r7
  302e86:	e2 11       	mov	#17,r2
  302e88:	e1 55       	mov	#85,r1
  302e8a:	63 23       	mov	r2,r3
  302e8c:	62 13       	mov	r1,r2
  302e8e:	61 73       	mov	r7,r1
  302e90:	31 38       	sub	r3,r1
  302e92:	31 26       	cmp/hi	r2,r1
  302e94:	8b 01       	bf	302e9a <_process_key_rowcol_stage+0x30a>
  302e96:	a1 51       	bra	30313c <_process_key_rowcol_stage+0x5ac>
  302e98:	00 09       	nop	
  302e9a:	c7 04       	mova	302eac <_process_key_rowcol_stage+0x31c>,r0
  302e9c:	41 08       	shll2	r1
  302e9e:	01 1e       	mov.l	@(r0,r1),r1
  302ea0:	01 23       	braf	r1
  302ea2:	00 09       	nop	
  302ea4:	04 00       	.word 0x0400
  302ea6:	00 09       	nop	
  302ea8:	00 30       	.word 0x0030
  302eaa:	21 14       	mov.b	r1,@-r1
  302eac:	00 00       	.word 0x0000
  302eae:	02 8c       	mov.b	@(r0,r8),r2
  302eb0:	00 00       	.word 0x0000
  302eb2:	02 98       	.word 0x0298
  302eb4:	00 00       	.word 0x0000
  302eb6:	02 98       	.word 0x0298
  302eb8:	00 00       	.word 0x0000
  302eba:	02 98       	.word 0x0298
  302ebc:	00 00       	.word 0x0000
  302ebe:	02 98       	.word 0x0298
  302ec0:	00 00       	.word 0x0000
  302ec2:	02 98       	.word 0x0298
  302ec4:	00 00       	.word 0x0000
  302ec6:	02 98       	.word 0x0298
  302ec8:	00 00       	.word 0x0000
  302eca:	02 98       	.word 0x0298
  302ecc:	00 00       	.word 0x0000
  302ece:	02 98       	.word 0x0298
  302ed0:	00 00       	.word 0x0000
  302ed2:	02 98       	.word 0x0298
  302ed4:	00 00       	.word 0x0000
  302ed6:	02 98       	.word 0x0298
  302ed8:	00 00       	.word 0x0000
  302eda:	02 98       	.word 0x0298
  302edc:	00 00       	.word 0x0000
  302ede:	02 98       	.word 0x0298
  302ee0:	00 00       	.word 0x0000
  302ee2:	02 98       	.word 0x0298
  302ee4:	00 00       	.word 0x0000
  302ee6:	02 98       	.word 0x0298
  302ee8:	00 00       	.word 0x0000
  302eea:	02 98       	.word 0x0298
  302eec:	00 00       	.word 0x0000
  302eee:	02 50       	.word 0x0250
  302ef0:	00 00       	.word 0x0000
  302ef2:	02 5c       	mov.b	@(r0,r5),r2
  302ef4:	00 00       	.word 0x0000
  302ef6:	02 68       	.word 0x0268
  302ef8:	00 00       	.word 0x0000
  302efa:	02 74       	mov.b	r7,@(r0,r2)
  302efc:	00 00       	.word 0x0000
  302efe:	02 80       	.word 0x0280
  302f00:	00 00       	.word 0x0000
  302f02:	02 98       	.word 0x0298
  302f04:	00 00       	.word 0x0000
  302f06:	02 98       	.word 0x0298
  302f08:	00 00       	.word 0x0000
  302f0a:	02 98       	.word 0x0298
  302f0c:	00 00       	.word 0x0000
  302f0e:	02 98       	.word 0x0298
  302f10:	00 00       	.word 0x0000
  302f12:	02 98       	.word 0x0298
  302f14:	00 00       	.word 0x0000
  302f16:	02 98       	.word 0x0298
  302f18:	00 00       	.word 0x0000
  302f1a:	02 98       	.word 0x0298
  302f1c:	00 00       	.word 0x0000
  302f1e:	02 98       	.word 0x0298
  302f20:	00 00       	.word 0x0000
  302f22:	02 98       	.word 0x0298
  302f24:	00 00       	.word 0x0000
  302f26:	02 98       	.word 0x0298
  302f28:	00 00       	.word 0x0000
  302f2a:	02 98       	.word 0x0298
  302f2c:	00 00       	.word 0x0000
  302f2e:	02 14       	mov.b	r1,@(r0,r2)
  302f30:	00 00       	.word 0x0000
  302f32:	02 20       	.word 0x0220
  302f34:	00 00       	.word 0x0000
  302f36:	02 2c       	mov.b	@(r0,r2),r2
  302f38:	00 00       	.word 0x0000
  302f3a:	02 38       	.word 0x0238
  302f3c:	00 00       	.word 0x0000
  302f3e:	02 44       	mov.b	r4,@(r0,r2)
  302f40:	00 00       	.word 0x0000
  302f42:	02 98       	.word 0x0298
  302f44:	00 00       	.word 0x0000
  302f46:	02 98       	.word 0x0298
  302f48:	00 00       	.word 0x0000
  302f4a:	02 98       	.word 0x0298
  302f4c:	00 00       	.word 0x0000
  302f4e:	02 98       	.word 0x0298
  302f50:	00 00       	.word 0x0000
  302f52:	02 98       	.word 0x0298
  302f54:	00 00       	.word 0x0000
  302f56:	02 98       	.word 0x0298
  302f58:	00 00       	.word 0x0000
  302f5a:	02 98       	.word 0x0298
  302f5c:	00 00       	.word 0x0000
  302f5e:	02 98       	.word 0x0298
  302f60:	00 00       	.word 0x0000
  302f62:	02 98       	.word 0x0298
  302f64:	00 00       	.word 0x0000
  302f66:	02 98       	.word 0x0298
  302f68:	00 00       	.word 0x0000
  302f6a:	02 98       	.word 0x0298
  302f6c:	00 00       	.word 0x0000
  302f6e:	01 f0       	.word 0x01f0
  302f70:	00 00       	.word 0x0000
  302f72:	01 fc       	mov.b	@(r0,r15),r1
  302f74:	00 00       	.word 0x0000
  302f76:	02 08       	.word 0x0208
  302f78:	00 00       	.word 0x0000
  302f7a:	02 98       	.word 0x0298
  302f7c:	00 00       	.word 0x0000
  302f7e:	02 98       	.word 0x0298
  302f80:	00 00       	.word 0x0000
  302f82:	02 98       	.word 0x0298
  302f84:	00 00       	.word 0x0000
  302f86:	02 98       	.word 0x0298
  302f88:	00 00       	.word 0x0000
  302f8a:	02 98       	.word 0x0298
  302f8c:	00 00       	.word 0x0000
  302f8e:	02 98       	.word 0x0298
  302f90:	00 00       	.word 0x0000
  302f92:	02 98       	.word 0x0298
  302f94:	00 00       	.word 0x0000
  302f96:	02 98       	.word 0x0298
  302f98:	00 00       	.word 0x0000
  302f9a:	02 98       	.word 0x0298
  302f9c:	00 00       	.word 0x0000
  302f9e:	02 98       	.word 0x0298
  302fa0:	00 00       	.word 0x0000
  302fa2:	02 98       	.word 0x0298
  302fa4:	00 00       	.word 0x0000
  302fa6:	02 98       	.word 0x0298
  302fa8:	00 00       	.word 0x0000
  302faa:	02 98       	.word 0x0298
  302fac:	00 00       	.word 0x0000
  302fae:	01 a8       	.word 0x01a8
  302fb0:	00 00       	.word 0x0000
  302fb2:	01 b4       	mov.b	r11,@(r0,r1)
  302fb4:	00 00       	.word 0x0000
  302fb6:	01 c0       	.word 0x01c0
  302fb8:	00 00       	.word 0x0000
  302fba:	01 cc       	mov.b	@(r0,r12),r1
  302fbc:	00 00       	.word 0x0000
  302fbe:	01 d8       	.word 0x01d8
  302fc0:	00 00       	.word 0x0000
  302fc2:	01 e4       	mov.b	r14,@(r0,r1)
  302fc4:	00 00       	.word 0x0000
  302fc6:	02 98       	.word 0x0298
  302fc8:	00 00       	.word 0x0000
  302fca:	02 98       	.word 0x0298
  302fcc:	00 00       	.word 0x0000
  302fce:	02 98       	.word 0x0298
  302fd0:	00 00       	.word 0x0000
  302fd2:	02 98       	.word 0x0298
  302fd4:	00 00       	.word 0x0000
  302fd6:	02 98       	.word 0x0298
  302fd8:	00 00       	.word 0x0000
  302fda:	02 98       	.word 0x0298
  302fdc:	00 00       	.word 0x0000
  302fde:	02 98       	.word 0x0298
  302fe0:	00 00       	.word 0x0000
  302fe2:	02 98       	.word 0x0298
  302fe4:	00 00       	.word 0x0000
  302fe6:	02 98       	.word 0x0298
  302fe8:	00 00       	.word 0x0000
  302fea:	02 98       	.word 0x0298
  302fec:	00 00       	.word 0x0000
  302fee:	01 60       	.word 0x0160
  302ff0:	00 00       	.word 0x0000
  302ff2:	01 6c       	mov.b	@(r0,r6),r1
  302ff4:	00 00       	.word 0x0000
  302ff6:	01 78       	.word 0x0178
  302ff8:	00 00       	.word 0x0000
  302ffa:	01 84       	mov.b	r8,@(r0,r1)
  302ffc:	00 00       	.word 0x0000
  302ffe:	01 90       	.word 0x0190
  303000:	00 00       	.word 0x0000
  303002:	01 9c       	mov.b	@(r0,r9),r1
  303004:	61 e3       	mov	r14,r1
  303006:	71 e8       	add	#-24,r1
  303008:	d2 6c       	mov.l	3031bc <_process_key_rowcol_stage+0x62c>,r2	! 30c854
  30300a:	11 2b       	mov.l	r2,@(44,r1)
  30300c:	a0 9b       	bra	303146 <_process_key_rowcol_stage+0x5b6>
  30300e:	00 09       	nop	
  303010:	61 e3       	mov	r14,r1
  303012:	71 e8       	add	#-24,r1
  303014:	d2 6a       	mov.l	3031c0 <_process_key_rowcol_stage+0x630>,r2	! 30c858
  303016:	11 2b       	mov.l	r2,@(44,r1)
  303018:	a0 95       	bra	303146 <_process_key_rowcol_stage+0x5b6>
  30301a:	00 09       	nop	
  30301c:	61 e3       	mov	r14,r1
  30301e:	71 e8       	add	#-24,r1
  303020:	d2 68       	mov.l	3031c4 <_process_key_rowcol_stage+0x634>,r2	! 30c85c
  303022:	11 2b       	mov.l	r2,@(44,r1)
  303024:	a0 8f       	bra	303146 <_process_key_rowcol_stage+0x5b6>
  303026:	00 09       	nop	
  303028:	61 e3       	mov	r14,r1
  30302a:	71 e8       	add	#-24,r1
  30302c:	d2 66       	mov.l	3031c8 <_process_key_rowcol_stage+0x638>,r2	! 30c860
  30302e:	11 2b       	mov.l	r2,@(44,r1)
  303030:	a0 89       	bra	303146 <_process_key_rowcol_stage+0x5b6>
  303032:	00 09       	nop	
  303034:	61 e3       	mov	r14,r1
  303036:	71 e8       	add	#-24,r1
  303038:	d2 64       	mov.l	3031cc <_process_key_rowcol_stage+0x63c>,r2	! 30c864
  30303a:	11 2b       	mov.l	r2,@(44,r1)
  30303c:	a0 83       	bra	303146 <_process_key_rowcol_stage+0x5b6>
  30303e:	00 09       	nop	
  303040:	61 e3       	mov	r14,r1
  303042:	71 e8       	add	#-24,r1
  303044:	d2 62       	mov.l	3031d0 <_process_key_rowcol_stage+0x640>,r2	! 30c868
  303046:	11 2b       	mov.l	r2,@(44,r1)
  303048:	a0 7d       	bra	303146 <_process_key_rowcol_stage+0x5b6>
  30304a:	00 09       	nop	
  30304c:	61 e3       	mov	r14,r1
  30304e:	71 e8       	add	#-24,r1
  303050:	d2 60       	mov.l	3031d4 <_process_key_rowcol_stage+0x644>,r2	! 30c86c
  303052:	11 2b       	mov.l	r2,@(44,r1)
  303054:	a0 77       	bra	303146 <_process_key_rowcol_stage+0x5b6>
  303056:	00 09       	nop	
  303058:	61 e3       	mov	r14,r1
  30305a:	71 e8       	add	#-24,r1
  30305c:	d2 5e       	mov.l	3031d8 <_process_key_rowcol_stage+0x648>,r2	! 30c870
  30305e:	11 2b       	mov.l	r2,@(44,r1)
  303060:	a0 71       	bra	303146 <_process_key_rowcol_stage+0x5b6>
  303062:	00 09       	nop	
  303064:	61 e3       	mov	r14,r1
  303066:	71 e8       	add	#-24,r1
  303068:	d2 5c       	mov.l	3031dc <_process_key_rowcol_stage+0x64c>,r2	! 30c874
  30306a:	11 2b       	mov.l	r2,@(44,r1)
  30306c:	a0 6b       	bra	303146 <_process_key_rowcol_stage+0x5b6>
  30306e:	00 09       	nop	
  303070:	61 e3       	mov	r14,r1
  303072:	71 e8       	add	#-24,r1
  303074:	d2 5a       	mov.l	3031e0 <_process_key_rowcol_stage+0x650>,r2	! 30c878
  303076:	11 2b       	mov.l	r2,@(44,r1)
  303078:	a0 65       	bra	303146 <_process_key_rowcol_stage+0x5b6>
  30307a:	00 09       	nop	
  30307c:	61 e3       	mov	r14,r1
  30307e:	71 e8       	add	#-24,r1
  303080:	d2 58       	mov.l	3031e4 <_process_key_rowcol_stage+0x654>,r2	! 30c87c
  303082:	11 2b       	mov.l	r2,@(44,r1)
  303084:	a0 5f       	bra	303146 <_process_key_rowcol_stage+0x5b6>
  303086:	00 09       	nop	
  303088:	61 e3       	mov	r14,r1
  30308a:	71 e8       	add	#-24,r1
  30308c:	d2 56       	mov.l	3031e8 <_process_key_rowcol_stage+0x658>,r2	! 30c880
  30308e:	11 2b       	mov.l	r2,@(44,r1)
  303090:	a0 59       	bra	303146 <_process_key_rowcol_stage+0x5b6>
  303092:	00 09       	nop	
  303094:	61 e3       	mov	r14,r1
  303096:	71 e8       	add	#-24,r1
  303098:	d2 54       	mov.l	3031ec <_process_key_rowcol_stage+0x65c>,r2	! 30c884
  30309a:	11 2b       	mov.l	r2,@(44,r1)
  30309c:	a0 53       	bra	303146 <_process_key_rowcol_stage+0x5b6>
  30309e:	00 09       	nop	
  3030a0:	61 e3       	mov	r14,r1
  3030a2:	71 e8       	add	#-24,r1
  3030a4:	d2 52       	mov.l	3031f0 <_process_key_rowcol_stage+0x660>,r2	! 30c888
  3030a6:	11 2b       	mov.l	r2,@(44,r1)
  3030a8:	a0 4d       	bra	303146 <_process_key_rowcol_stage+0x5b6>
  3030aa:	00 09       	nop	
  3030ac:	61 e3       	mov	r14,r1
  3030ae:	71 e8       	add	#-24,r1
  3030b0:	d2 50       	mov.l	3031f4 <_process_key_rowcol_stage+0x664>,r2	! 30c88c
  3030b2:	11 2b       	mov.l	r2,@(44,r1)
  3030b4:	a0 47       	bra	303146 <_process_key_rowcol_stage+0x5b6>
  3030b6:	00 09       	nop	
  3030b8:	61 e3       	mov	r14,r1
  3030ba:	71 e8       	add	#-24,r1
  3030bc:	d2 4e       	mov.l	3031f8 <_process_key_rowcol_stage+0x668>,r2	! 30c890
  3030be:	11 2b       	mov.l	r2,@(44,r1)
  3030c0:	a0 41       	bra	303146 <_process_key_rowcol_stage+0x5b6>
  3030c2:	00 09       	nop	
  3030c4:	61 e3       	mov	r14,r1
  3030c6:	71 e8       	add	#-24,r1
  3030c8:	d2 4c       	mov.l	3031fc <_process_key_rowcol_stage+0x66c>,r2	! 30c894
  3030ca:	11 2b       	mov.l	r2,@(44,r1)
  3030cc:	a0 3b       	bra	303146 <_process_key_rowcol_stage+0x5b6>
  3030ce:	00 09       	nop	
  3030d0:	61 e3       	mov	r14,r1
  3030d2:	71 e8       	add	#-24,r1
  3030d4:	d2 4a       	mov.l	303200 <_process_key_rowcol_stage+0x670>,r2	! 30c898
  3030d6:	11 2b       	mov.l	r2,@(44,r1)
  3030d8:	a0 35       	bra	303146 <_process_key_rowcol_stage+0x5b6>
  3030da:	00 09       	nop	
  3030dc:	61 e3       	mov	r14,r1
  3030de:	71 e8       	add	#-24,r1
  3030e0:	d2 48       	mov.l	303204 <_process_key_rowcol_stage+0x674>,r2	! 30c89c
  3030e2:	11 2b       	mov.l	r2,@(44,r1)
  3030e4:	a0 2f       	bra	303146 <_process_key_rowcol_stage+0x5b6>
  3030e6:	00 09       	nop	
  3030e8:	61 e3       	mov	r14,r1
  3030ea:	71 e8       	add	#-24,r1
  3030ec:	d2 46       	mov.l	303208 <_process_key_rowcol_stage+0x678>,r2	! 30c8a0
  3030ee:	11 2b       	mov.l	r2,@(44,r1)
  3030f0:	a0 29       	bra	303146 <_process_key_rowcol_stage+0x5b6>
  3030f2:	00 09       	nop	
  3030f4:	61 e3       	mov	r14,r1
  3030f6:	71 e8       	add	#-24,r1
  3030f8:	d2 44       	mov.l	30320c <_process_key_rowcol_stage+0x67c>,r2	! 30c8a4
  3030fa:	11 2b       	mov.l	r2,@(44,r1)
  3030fc:	a0 23       	bra	303146 <_process_key_rowcol_stage+0x5b6>
  3030fe:	00 09       	nop	
  303100:	61 e3       	mov	r14,r1
  303102:	71 e8       	add	#-24,r1
  303104:	d2 42       	mov.l	303210 <_process_key_rowcol_stage+0x680>,r2	! 30c8a8
  303106:	11 2b       	mov.l	r2,@(44,r1)
  303108:	a0 1d       	bra	303146 <_process_key_rowcol_stage+0x5b6>
  30310a:	00 09       	nop	
  30310c:	61 e3       	mov	r14,r1
  30310e:	71 e8       	add	#-24,r1
  303110:	d2 40       	mov.l	303214 <_process_key_rowcol_stage+0x684>,r2	! 30c8ac
  303112:	11 2b       	mov.l	r2,@(44,r1)
  303114:	a0 17       	bra	303146 <_process_key_rowcol_stage+0x5b6>
  303116:	00 09       	nop	
  303118:	61 e3       	mov	r14,r1
  30311a:	71 e8       	add	#-24,r1
  30311c:	d2 3e       	mov.l	303218 <_process_key_rowcol_stage+0x688>,r2	! 30c8b0
  30311e:	11 2b       	mov.l	r2,@(44,r1)
  303120:	a0 11       	bra	303146 <_process_key_rowcol_stage+0x5b6>
  303122:	00 09       	nop	
  303124:	61 e3       	mov	r14,r1
  303126:	71 e8       	add	#-24,r1
  303128:	d2 3c       	mov.l	30321c <_process_key_rowcol_stage+0x68c>,r2	! 30c8b4
  30312a:	11 2b       	mov.l	r2,@(44,r1)
  30312c:	a0 0b       	bra	303146 <_process_key_rowcol_stage+0x5b6>
  30312e:	00 09       	nop	
  303130:	61 e3       	mov	r14,r1
  303132:	71 e8       	add	#-24,r1
  303134:	d2 3a       	mov.l	303220 <_process_key_rowcol_stage+0x690>,r2	! 30c8b8
  303136:	11 2b       	mov.l	r2,@(44,r1)
  303138:	a0 05       	bra	303146 <_process_key_rowcol_stage+0x5b6>
  30313a:	00 09       	nop	
  30313c:	61 e3       	mov	r14,r1
  30313e:	71 e8       	add	#-24,r1
  303140:	d2 38       	mov.l	303224 <_process_key_rowcol_stage+0x694>,r2	! 30c8bc
  303142:	11 2b       	mov.l	r2,@(44,r1)
  303144:	00 09       	nop	
  303146:	61 e3       	mov	r14,r1
  303148:	71 e8       	add	#-24,r1
  30314a:	51 16       	mov.l	@(24,r1),r1
  30314c:	52 11       	mov.l	@(4,r1),r2
  30314e:	61 e3       	mov	r14,r1
  303150:	71 e8       	add	#-24,r1
  303152:	51 17       	mov.l	@(28,r1),r1
  303154:	61 10       	mov.b	@r1,r1
  303156:	61 1c       	extu.b	r1,r1
  303158:	41 08       	shll2	r1
  30315a:	31 2c       	add	r2,r1
  30315c:	62 12       	mov.l	@r1,r2
  30315e:	61 e3       	mov	r14,r1
  303160:	71 e8       	add	#-24,r1
  303162:	51 18       	mov.l	@(32,r1),r1
  303164:	61 10       	mov.b	@r1,r1
  303166:	61 1c       	extu.b	r1,r1
  303168:	41 08       	shll2	r1
  30316a:	31 2c       	add	r2,r1
  30316c:	62 12       	mov.l	@r1,r2
  30316e:	61 e3       	mov	r14,r1
  303170:	71 e8       	add	#-24,r1
  303172:	52 26       	mov.l	@(24,r2),r2
  303174:	11 2a       	mov.l	r2,@(40,r1)
  303176:	61 e3       	mov	r14,r1
  303178:	71 e8       	add	#-24,r1
  30317a:	51 16       	mov.l	@(24,r1),r1
  30317c:	52 11       	mov.l	@(4,r1),r2
  30317e:	61 e3       	mov	r14,r1
  303180:	71 e8       	add	#-24,r1
  303182:	51 17       	mov.l	@(28,r1),r1
  303184:	61 10       	mov.b	@r1,r1
  303186:	61 1c       	extu.b	r1,r1
  303188:	41 08       	shll2	r1
  30318a:	31 2c       	add	r2,r1
  30318c:	62 12       	mov.l	@r1,r2
  30318e:	61 e3       	mov	r14,r1
  303190:	71 e8       	add	#-24,r1
  303192:	51 18       	mov.l	@(32,r1),r1
  303194:	61 10       	mov.b	@r1,r1
  303196:	61 1c       	extu.b	r1,r1
  303198:	41 08       	shll2	r1
  30319a:	31 2c       	add	r2,r1
  30319c:	61 12       	mov.l	@r1,r1
  30319e:	53 16       	mov.l	@(24,r1),r3
  3031a0:	62 e3       	mov	r14,r2
  3031a2:	72 e8       	add	#-24,r2
  3031a4:	61 e3       	mov	r14,r1
  3031a6:	71 e8       	add	#-24,r1
  3031a8:	d5 1f       	mov.l	303228 <_process_key_rowcol_stage+0x698>,r5	! 30c8c0
  3031aa:	57 2b       	mov.l	@(44,r2),r7
  3031ac:	56 1a       	mov.l	@(40,r1),r6
  3031ae:	64 33       	mov	r3,r4
  3031b0:	d1 1e       	mov.l	30322c <_process_key_rowcol_stage+0x69c>,r1	! 309ff0 <_sprintf>
  3031b2:	41 0b       	jsr	@r1
  3031b4:	00 09       	nop	
  3031b6:	a0 4a       	bra	30324e <_process_key_rowcol_stage+0x6be>
  3031b8:	00 09       	nop	
  3031ba:	00 09       	nop	
  3031bc:	00 30       	.word 0x0030
  3031be:	c8 54       	tst	#84,r0
  3031c0:	00 30       	.word 0x0030
  3031c2:	c8 58       	tst	#88,r0
  3031c4:	00 30       	.word 0x0030
  3031c6:	c8 5c       	tst	#92,r0
  3031c8:	00 30       	.word 0x0030
  3031ca:	c8 60       	tst	#96,r0
  3031cc:	00 30       	.word 0x0030
  3031ce:	c8 64       	tst	#100,r0
  3031d0:	00 30       	.word 0x0030
  3031d2:	c8 68       	tst	#104,r0
  3031d4:	00 30       	.word 0x0030
  3031d6:	c8 6c       	tst	#108,r0
  3031d8:	00 30       	.word 0x0030
  3031da:	c8 70       	tst	#112,r0
  3031dc:	00 30       	.word 0x0030
  3031de:	c8 74       	tst	#116,r0
  3031e0:	00 30       	.word 0x0030
  3031e2:	c8 78       	tst	#120,r0
  3031e4:	00 30       	.word 0x0030
  3031e6:	c8 7c       	tst	#124,r0
  3031e8:	00 30       	.word 0x0030
  3031ea:	c8 80       	tst	#128,r0
  3031ec:	00 30       	.word 0x0030
  3031ee:	c8 84       	tst	#132,r0
  3031f0:	00 30       	.word 0x0030
  3031f2:	c8 88       	tst	#136,r0
  3031f4:	00 30       	.word 0x0030
  3031f6:	c8 8c       	tst	#140,r0
  3031f8:	00 30       	.word 0x0030
  3031fa:	c8 90       	tst	#144,r0
  3031fc:	00 30       	.word 0x0030
  3031fe:	c8 94       	tst	#148,r0
  303200:	00 30       	.word 0x0030
  303202:	c8 98       	tst	#152,r0
  303204:	00 30       	.word 0x0030
  303206:	c8 9c       	tst	#156,r0
  303208:	00 30       	.word 0x0030
  30320a:	c8 a0       	tst	#160,r0
  30320c:	00 30       	.word 0x0030
  30320e:	c8 a4       	tst	#164,r0
  303210:	00 30       	.word 0x0030
  303212:	c8 a8       	tst	#168,r0
  303214:	00 30       	.word 0x0030
  303216:	c8 ac       	tst	#172,r0
  303218:	00 30       	.word 0x0030
  30321a:	c8 b0       	tst	#176,r0
  30321c:	00 30       	.word 0x0030
  30321e:	c8 b4       	tst	#180,r0
  303220:	00 30       	.word 0x0030
  303222:	c8 b8       	tst	#184,r0
  303224:	00 30       	.word 0x0030
  303226:	c8 bc       	tst	#188,r0
  303228:	00 30       	.word 0x0030
  30322a:	c8 c0       	tst	#192,r0
  30322c:	00 30       	.word 0x0030
  30322e:	9f f0       	mov.w	303412 <_process_key_tableux_stage+0x1ae>,r15	! 611c
  303230:	67 e3       	mov	r14,r7
  303232:	77 e8       	add	#-24,r7
  303234:	63 e3       	mov	r14,r3
  303236:	73 e8       	add	#-24,r3
  303238:	62 e3       	mov	r14,r2
  30323a:	72 e8       	add	#-24,r2
  30323c:	61 e3       	mov	r14,r1
  30323e:	71 e8       	add	#-24,r1
  303240:	57 76       	mov.l	@(24,r7),r7
  303242:	56 37       	mov.l	@(28,r3),r6
  303244:	55 28       	mov.l	@(32,r2),r5
  303246:	54 19       	mov.l	@(36,r1),r4
  303248:	d1 05       	mov.l	303260 <_process_key_rowcol_stage+0x6d0>,r1	! 30228a <_process_common_keys>
  30324a:	41 0b       	jsr	@r1
  30324c:	00 09       	nop	
  30324e:	e1 00       	mov	#0,r1
  303250:	60 13       	mov	r1,r0
  303252:	7e 28       	add	#40,r14
  303254:	6f e3       	mov	r14,r15
  303256:	4f 26       	lds.l	@r15+,pr
  303258:	6e f6       	mov.l	@r15+,r14
  30325a:	00 0b       	rts	
  30325c:	00 09       	nop	
  30325e:	00 09       	nop	
  303260:	00 30       	.word 0x0030
  303262:	22 8a       	xor	r8,r2

00303264 <_process_key_tableux_stage>:
  303264:	2f e6       	mov.l	r14,@-r15
  303266:	4f 22       	sts.l	pr,@-r15
  303268:	7f e8       	add	#-24,r15
  30326a:	6e f3       	mov	r15,r14
  30326c:	61 e3       	mov	r14,r1
  30326e:	71 d8       	add	#-40,r1
